
ctarget:     file format elf64-x86-64


Disassembly of section .init:

0000000000400b88 <_init>:
  400b88:	48 83 ec 08          	sub    $0x8,%rsp
  400b8c:	48 8b 05 65 34 20 00 	mov    0x203465(%rip),%rax        # 603ff8 <__gmon_start__>
  400b93:	48 85 c0             	test   %rax,%rax
  400b96:	74 05                	je     400b9d <_init+0x15>
  400b98:	e8 13 02 00 00       	call   400db0 <__gmon_start__@plt>
  400b9d:	48 83 c4 08          	add    $0x8,%rsp
  400ba1:	c3                   	ret

Disassembly of section .plt:

0000000000400bb0 <.plt>:
  400bb0:	ff 35 52 34 20 00    	push   0x203452(%rip)        # 604008 <_GLOBAL_OFFSET_TABLE_+0x8>
  400bb6:	ff 25 54 34 20 00    	jmp    *0x203454(%rip)        # 604010 <_GLOBAL_OFFSET_TABLE_+0x10>
  400bbc:	0f 1f 40 00          	nopl   0x0(%rax)

0000000000400bc0 <__errno_location@plt>:
  400bc0:	ff 25 52 34 20 00    	jmp    *0x203452(%rip)        # 604018 <__errno_location@GLIBC_2.2.5>
  400bc6:	68 00 00 00 00       	push   $0x0
  400bcb:	e9 e0 ff ff ff       	jmp    400bb0 <.plt>

0000000000400bd0 <srandom@plt>:
  400bd0:	ff 25 4a 34 20 00    	jmp    *0x20344a(%rip)        # 604020 <srandom@GLIBC_2.2.5>
  400bd6:	68 01 00 00 00       	push   $0x1
  400bdb:	e9 d0 ff ff ff       	jmp    400bb0 <.plt>

0000000000400be0 <strncmp@plt>:
  400be0:	ff 25 42 34 20 00    	jmp    *0x203442(%rip)        # 604028 <strncmp@GLIBC_2.2.5>
  400be6:	68 02 00 00 00       	push   $0x2
  400beb:	e9 c0 ff ff ff       	jmp    400bb0 <.plt>

0000000000400bf0 <strcpy@plt>:
  400bf0:	ff 25 3a 34 20 00    	jmp    *0x20343a(%rip)        # 604030 <strcpy@GLIBC_2.2.5>
  400bf6:	68 03 00 00 00       	push   $0x3
  400bfb:	e9 b0 ff ff ff       	jmp    400bb0 <.plt>

0000000000400c00 <puts@plt>:
  400c00:	ff 25 32 34 20 00    	jmp    *0x203432(%rip)        # 604038 <puts@GLIBC_2.2.5>
  400c06:	68 04 00 00 00       	push   $0x4
  400c0b:	e9 a0 ff ff ff       	jmp    400bb0 <.plt>

0000000000400c10 <write@plt>:
  400c10:	ff 25 2a 34 20 00    	jmp    *0x20342a(%rip)        # 604040 <write@GLIBC_2.2.5>
  400c16:	68 05 00 00 00       	push   $0x5
  400c1b:	e9 90 ff ff ff       	jmp    400bb0 <.plt>

0000000000400c20 <__stack_chk_fail@plt>:
  400c20:	ff 25 22 34 20 00    	jmp    *0x203422(%rip)        # 604048 <__stack_chk_fail@GLIBC_2.4>
  400c26:	68 06 00 00 00       	push   $0x6
  400c2b:	e9 80 ff ff ff       	jmp    400bb0 <.plt>

0000000000400c30 <mmap@plt>:
  400c30:	ff 25 1a 34 20 00    	jmp    *0x20341a(%rip)        # 604050 <mmap@GLIBC_2.2.5>
  400c36:	68 07 00 00 00       	push   $0x7
  400c3b:	e9 70 ff ff ff       	jmp    400bb0 <.plt>

0000000000400c40 <memset@plt>:
  400c40:	ff 25 12 34 20 00    	jmp    *0x203412(%rip)        # 604058 <memset@GLIBC_2.2.5>
  400c46:	68 08 00 00 00       	push   $0x8
  400c4b:	e9 60 ff ff ff       	jmp    400bb0 <.plt>

0000000000400c50 <alarm@plt>:
  400c50:	ff 25 0a 34 20 00    	jmp    *0x20340a(%rip)        # 604060 <alarm@GLIBC_2.2.5>
  400c56:	68 09 00 00 00       	push   $0x9
  400c5b:	e9 50 ff ff ff       	jmp    400bb0 <.plt>

0000000000400c60 <close@plt>:
  400c60:	ff 25 02 34 20 00    	jmp    *0x203402(%rip)        # 604068 <close@GLIBC_2.2.5>
  400c66:	68 0a 00 00 00       	push   $0xa
  400c6b:	e9 40 ff ff ff       	jmp    400bb0 <.plt>

0000000000400c70 <read@plt>:
  400c70:	ff 25 fa 33 20 00    	jmp    *0x2033fa(%rip)        # 604070 <read@GLIBC_2.2.5>
  400c76:	68 0b 00 00 00       	push   $0xb
  400c7b:	e9 30 ff ff ff       	jmp    400bb0 <.plt>

0000000000400c80 <__libc_start_main@plt>:
  400c80:	ff 25 f2 33 20 00    	jmp    *0x2033f2(%rip)        # 604078 <__libc_start_main@GLIBC_2.2.5>
  400c86:	68 0c 00 00 00       	push   $0xc
  400c8b:	e9 20 ff ff ff       	jmp    400bb0 <.plt>

0000000000400c90 <inet_addr@plt>:
  400c90:	ff 25 ea 33 20 00    	jmp    *0x2033ea(%rip)        # 604080 <inet_addr@GLIBC_2.2.5>
  400c96:	68 0d 00 00 00       	push   $0xd
  400c9b:	e9 10 ff ff ff       	jmp    400bb0 <.plt>

0000000000400ca0 <signal@plt>:
  400ca0:	ff 25 e2 33 20 00    	jmp    *0x2033e2(%rip)        # 604088 <signal@GLIBC_2.2.5>
  400ca6:	68 0e 00 00 00       	push   $0xe
  400cab:	e9 00 ff ff ff       	jmp    400bb0 <.plt>

0000000000400cb0 <strtol@plt>:
  400cb0:	ff 25 da 33 20 00    	jmp    *0x2033da(%rip)        # 604090 <strtol@GLIBC_2.2.5>
  400cb6:	68 0f 00 00 00       	push   $0xf
  400cbb:	e9 f0 fe ff ff       	jmp    400bb0 <.plt>

0000000000400cc0 <memcpy@plt>:
  400cc0:	ff 25 d2 33 20 00    	jmp    *0x2033d2(%rip)        # 604098 <memcpy@GLIBC_2.14>
  400cc6:	68 10 00 00 00       	push   $0x10
  400ccb:	e9 e0 fe ff ff       	jmp    400bb0 <.plt>

0000000000400cd0 <time@plt>:
  400cd0:	ff 25 ca 33 20 00    	jmp    *0x2033ca(%rip)        # 6040a0 <time@GLIBC_2.2.5>
  400cd6:	68 11 00 00 00       	push   $0x11
  400cdb:	e9 d0 fe ff ff       	jmp    400bb0 <.plt>

0000000000400ce0 <random@plt>:
  400ce0:	ff 25 c2 33 20 00    	jmp    *0x2033c2(%rip)        # 6040a8 <random@GLIBC_2.2.5>
  400ce6:	68 12 00 00 00       	push   $0x12
  400ceb:	e9 c0 fe ff ff       	jmp    400bb0 <.plt>

0000000000400cf0 <_IO_getc@plt>:
  400cf0:	ff 25 ba 33 20 00    	jmp    *0x2033ba(%rip)        # 6040b0 <_IO_getc@GLIBC_2.2.5>
  400cf6:	68 13 00 00 00       	push   $0x13
  400cfb:	e9 b0 fe ff ff       	jmp    400bb0 <.plt>

0000000000400d00 <__isoc99_sscanf@plt>:
  400d00:	ff 25 b2 33 20 00    	jmp    *0x2033b2(%rip)        # 6040b8 <__isoc99_sscanf@GLIBC_2.7>
  400d06:	68 14 00 00 00       	push   $0x14
  400d0b:	e9 a0 fe ff ff       	jmp    400bb0 <.plt>

0000000000400d10 <munmap@plt>:
  400d10:	ff 25 aa 33 20 00    	jmp    *0x2033aa(%rip)        # 6040c0 <munmap@GLIBC_2.2.5>
  400d16:	68 15 00 00 00       	push   $0x15
  400d1b:	e9 90 fe ff ff       	jmp    400bb0 <.plt>

0000000000400d20 <__printf_chk@plt>:
  400d20:	ff 25 a2 33 20 00    	jmp    *0x2033a2(%rip)        # 6040c8 <__printf_chk@GLIBC_2.3.4>
  400d26:	68 16 00 00 00       	push   $0x16
  400d2b:	e9 80 fe ff ff       	jmp    400bb0 <.plt>

0000000000400d30 <fopen@plt>:
  400d30:	ff 25 9a 33 20 00    	jmp    *0x20339a(%rip)        # 6040d0 <fopen@GLIBC_2.2.5>
  400d36:	68 17 00 00 00       	push   $0x17
  400d3b:	e9 70 fe ff ff       	jmp    400bb0 <.plt>

0000000000400d40 <getopt@plt>:
  400d40:	ff 25 92 33 20 00    	jmp    *0x203392(%rip)        # 6040d8 <getopt@GLIBC_2.2.5>
  400d46:	68 18 00 00 00       	push   $0x18
  400d4b:	e9 60 fe ff ff       	jmp    400bb0 <.plt>

0000000000400d50 <strtoul@plt>:
  400d50:	ff 25 8a 33 20 00    	jmp    *0x20338a(%rip)        # 6040e0 <strtoul@GLIBC_2.2.5>
  400d56:	68 19 00 00 00       	push   $0x19
  400d5b:	e9 50 fe ff ff       	jmp    400bb0 <.plt>

0000000000400d60 <exit@plt>:
  400d60:	ff 25 82 33 20 00    	jmp    *0x203382(%rip)        # 6040e8 <exit@GLIBC_2.2.5>
  400d66:	68 1a 00 00 00       	push   $0x1a
  400d6b:	e9 40 fe ff ff       	jmp    400bb0 <.plt>

0000000000400d70 <connect@plt>:
  400d70:	ff 25 7a 33 20 00    	jmp    *0x20337a(%rip)        # 6040f0 <connect@GLIBC_2.2.5>
  400d76:	68 1b 00 00 00       	push   $0x1b
  400d7b:	e9 30 fe ff ff       	jmp    400bb0 <.plt>

0000000000400d80 <__fprintf_chk@plt>:
  400d80:	ff 25 72 33 20 00    	jmp    *0x203372(%rip)        # 6040f8 <__fprintf_chk@GLIBC_2.3.4>
  400d86:	68 1c 00 00 00       	push   $0x1c
  400d8b:	e9 20 fe ff ff       	jmp    400bb0 <.plt>

0000000000400d90 <__sprintf_chk@plt>:
  400d90:	ff 25 6a 33 20 00    	jmp    *0x20336a(%rip)        # 604100 <__sprintf_chk@GLIBC_2.3.4>
  400d96:	68 1d 00 00 00       	push   $0x1d
  400d9b:	e9 10 fe ff ff       	jmp    400bb0 <.plt>

0000000000400da0 <socket@plt>:
  400da0:	ff 25 62 33 20 00    	jmp    *0x203362(%rip)        # 604108 <socket@GLIBC_2.2.5>
  400da6:	68 1e 00 00 00       	push   $0x1e
  400dab:	e9 00 fe ff ff       	jmp    400bb0 <.plt>

Disassembly of section .plt.got:

0000000000400db0 <__gmon_start__@plt>:
  400db0:	ff 25 42 32 20 00    	jmp    *0x203242(%rip)        # 603ff8 <__gmon_start__>
  400db6:	66 90                	xchg   %ax,%ax

Disassembly of section .text:

0000000000400dc0 <_start>:
  400dc0:	31 ed                	xor    %ebp,%ebp
  400dc2:	49 89 d1             	mov    %rdx,%r9
  400dc5:	5e                   	pop    %rsi
  400dc6:	48 89 e2             	mov    %rsp,%rdx
  400dc9:	48 83 e4 f0          	and    $0xfffffffffffffff0,%rsp
  400dcd:	50                   	push   %rax
  400dce:	54                   	push   %rsp
  400dcf:	49 c7 c0 40 2c 40 00 	mov    $0x402c40,%r8
  400dd6:	48 c7 c1 d0 2b 40 00 	mov    $0x402bd0,%rcx
  400ddd:	48 c7 c7 3c 10 40 00 	mov    $0x40103c,%rdi
  400de4:	e8 97 fe ff ff       	call   400c80 <__libc_start_main@plt>
  400de9:	f4                   	hlt
  400dea:	66 0f 1f 44 00 00    	nopw   0x0(%rax,%rax,1)

0000000000400df0 <deregister_tm_clones>:
  400df0:	b8 97 44 60 00       	mov    $0x604497,%eax
  400df5:	55                   	push   %rbp
  400df6:	48 2d 90 44 60 00    	sub    $0x604490,%rax
  400dfc:	48 83 f8 0e          	cmp    $0xe,%rax
  400e00:	48 89 e5             	mov    %rsp,%rbp
  400e03:	76 1b                	jbe    400e20 <deregister_tm_clones+0x30>
  400e05:	b8 00 00 00 00       	mov    $0x0,%eax
  400e0a:	48 85 c0             	test   %rax,%rax
  400e0d:	74 11                	je     400e20 <deregister_tm_clones+0x30>
  400e0f:	5d                   	pop    %rbp
  400e10:	bf 90 44 60 00       	mov    $0x604490,%edi
  400e15:	ff e0                	jmp    *%rax
  400e17:	66 0f 1f 84 00 00 00 	nopw   0x0(%rax,%rax,1)
  400e1e:	00 00 
  400e20:	5d                   	pop    %rbp
  400e21:	c3                   	ret
  400e22:	0f 1f 40 00          	nopl   0x0(%rax)
  400e26:	66 2e 0f 1f 84 00 00 	cs nopw 0x0(%rax,%rax,1)
  400e2d:	00 00 00 

0000000000400e30 <register_tm_clones>:
  400e30:	be 90 44 60 00       	mov    $0x604490,%esi
  400e35:	55                   	push   %rbp
  400e36:	48 81 ee 90 44 60 00 	sub    $0x604490,%rsi
  400e3d:	48 c1 fe 03          	sar    $0x3,%rsi
  400e41:	48 89 e5             	mov    %rsp,%rbp
  400e44:	48 89 f0             	mov    %rsi,%rax
  400e47:	48 c1 e8 3f          	shr    $0x3f,%rax
  400e4b:	48 01 c6             	add    %rax,%rsi
  400e4e:	48 d1 fe             	sar    $1,%rsi
  400e51:	74 15                	je     400e68 <register_tm_clones+0x38>
  400e53:	b8 00 00 00 00       	mov    $0x0,%eax
  400e58:	48 85 c0             	test   %rax,%rax
  400e5b:	74 0b                	je     400e68 <register_tm_clones+0x38>
  400e5d:	5d                   	pop    %rbp
  400e5e:	bf 90 44 60 00       	mov    $0x604490,%edi
  400e63:	ff e0                	jmp    *%rax
  400e65:	0f 1f 00             	nopl   (%rax)
  400e68:	5d                   	pop    %rbp
  400e69:	c3                   	ret
  400e6a:	66 0f 1f 44 00 00    	nopw   0x0(%rax,%rax,1)

0000000000400e70 <__do_global_dtors_aux>:
  400e70:	80 3d 51 36 20 00 00 	cmpb   $0x0,0x203651(%rip)        # 6044c8 <completed.7594>
  400e77:	75 11                	jne    400e8a <__do_global_dtors_aux+0x1a>
  400e79:	55                   	push   %rbp
  400e7a:	48 89 e5             	mov    %rsp,%rbp
  400e7d:	e8 6e ff ff ff       	call   400df0 <deregister_tm_clones>
  400e82:	5d                   	pop    %rbp
  400e83:	c6 05 3e 36 20 00 01 	movb   $0x1,0x20363e(%rip)        # 6044c8 <completed.7594>
  400e8a:	f3 c3                	repz ret
  400e8c:	0f 1f 40 00          	nopl   0x0(%rax)

0000000000400e90 <frame_dummy>:
  400e90:	bf 20 3e 60 00       	mov    $0x603e20,%edi
  400e95:	48 83 3f 00          	cmpq   $0x0,(%rdi)
  400e99:	75 05                	jne    400ea0 <frame_dummy+0x10>
  400e9b:	eb 93                	jmp    400e30 <register_tm_clones>
  400e9d:	0f 1f 00             	nopl   (%rax)
  400ea0:	b8 00 00 00 00       	mov    $0x0,%eax
  400ea5:	48 85 c0             	test   %rax,%rax
  400ea8:	74 f1                	je     400e9b <frame_dummy+0xb>
  400eaa:	55                   	push   %rbp
  400eab:	48 89 e5             	mov    %rsp,%rbp
  400eae:	ff d0                	call   *%rax
  400eb0:	5d                   	pop    %rbp
  400eb1:	e9 7a ff ff ff       	jmp    400e30 <register_tm_clones>

0000000000400eb6 <usage>:
  400eb6:	48 83 ec 08          	sub    $0x8,%rsp
  400eba:	48 89 fa             	mov    %rdi,%rdx
  400ebd:	83 3d 44 36 20 00 00 	cmpl   $0x0,0x203644(%rip)        # 604508 <is_checker>
  400ec4:	74 3e                	je     400f04 <usage+0x4e>
  400ec6:	be 58 2c 40 00       	mov    $0x402c58,%esi
  400ecb:	bf 01 00 00 00       	mov    $0x1,%edi
  400ed0:	b8 00 00 00 00       	mov    $0x0,%eax
  400ed5:	e8 46 fe ff ff       	call   400d20 <__printf_chk@plt>
  400eda:	bf 90 2c 40 00       	mov    $0x402c90,%edi
  400edf:	e8 1c fd ff ff       	call   400c00 <puts@plt>
  400ee4:	bf 90 2d 40 00       	mov    $0x402d90,%edi
  400ee9:	e8 12 fd ff ff       	call   400c00 <puts@plt>
  400eee:	bf b8 2c 40 00       	mov    $0x402cb8,%edi
  400ef3:	e8 08 fd ff ff       	call   400c00 <puts@plt>
  400ef8:	bf aa 2d 40 00       	mov    $0x402daa,%edi
  400efd:	e8 fe fc ff ff       	call   400c00 <puts@plt>
  400f02:	eb 32                	jmp    400f36 <usage+0x80>
  400f04:	be c6 2d 40 00       	mov    $0x402dc6,%esi
  400f09:	bf 01 00 00 00       	mov    $0x1,%edi
  400f0e:	b8 00 00 00 00       	mov    $0x0,%eax
  400f13:	e8 08 fe ff ff       	call   400d20 <__printf_chk@plt>
  400f18:	bf e0 2c 40 00       	mov    $0x402ce0,%edi
  400f1d:	e8 de fc ff ff       	call   400c00 <puts@plt>
  400f22:	bf 08 2d 40 00       	mov    $0x402d08,%edi
  400f27:	e8 d4 fc ff ff       	call   400c00 <puts@plt>
  400f2c:	bf e4 2d 40 00       	mov    $0x402de4,%edi
  400f31:	e8 ca fc ff ff       	call   400c00 <puts@plt>
  400f36:	bf 00 00 00 00       	mov    $0x0,%edi
  400f3b:	e8 20 fe ff ff       	call   400d60 <exit@plt>

0000000000400f40 <initialize_target>:
  400f40:	55                   	push   %rbp
  400f41:	53                   	push   %rbx
  400f42:	48 81 ec 18 20 00 00 	sub    $0x2018,%rsp
  400f49:	89 f5                	mov    %esi,%ebp
  400f4b:	64 48 8b 04 25 28 00 	mov    %fs:0x28,%rax
  400f52:	00 00 
  400f54:	48 89 84 24 08 20 00 	mov    %rax,0x2008(%rsp)
  400f5b:	00 
  400f5c:	31 c0                	xor    %eax,%eax
  400f5e:	89 3d 94 35 20 00    	mov    %edi,0x203594(%rip)        # 6044f8 <check_level>
  400f64:	8b 3d de 31 20 00    	mov    0x2031de(%rip),%edi        # 604148 <target_id>
  400f6a:	e8 41 1c 00 00       	call   402bb0 <gencookie>
  400f6f:	89 05 8f 35 20 00    	mov    %eax,0x20358f(%rip)        # 604504 <cookie>
  400f75:	89 c7                	mov    %eax,%edi
  400f77:	e8 34 1c 00 00       	call   402bb0 <gencookie>
  400f7c:	89 05 7e 35 20 00    	mov    %eax,0x20357e(%rip)        # 604500 <authkey>
  400f82:	8b 05 c0 31 20 00    	mov    0x2031c0(%rip),%eax        # 604148 <target_id>
  400f88:	8d 78 01             	lea    0x1(%rax),%edi
  400f8b:	e8 40 fc ff ff       	call   400bd0 <srandom@plt>
  400f90:	e8 4b fd ff ff       	call   400ce0 <random@plt>
  400f95:	89 c7                	mov    %eax,%edi
  400f97:	e8 7a 02 00 00       	call   401216 <scramble>
  400f9c:	89 c3                	mov    %eax,%ebx
  400f9e:	85 ed                	test   %ebp,%ebp
  400fa0:	74 18                	je     400fba <initialize_target+0x7a>
  400fa2:	bf 00 00 00 00       	mov    $0x0,%edi
  400fa7:	e8 24 fd ff ff       	call   400cd0 <time@plt>
  400fac:	89 c7                	mov    %eax,%edi
  400fae:	e8 1d fc ff ff       	call   400bd0 <srandom@plt>
  400fb3:	e8 28 fd ff ff       	call   400ce0 <random@plt>
  400fb8:	eb 05                	jmp    400fbf <initialize_target+0x7f>
  400fba:	b8 00 00 00 00       	mov    $0x0,%eax
  400fbf:	01 c3                	add    %eax,%ebx
  400fc1:	0f b7 db             	movzwl %bx,%ebx
  400fc4:	8d 04 dd 00 01 00 00 	lea    0x100(,%rbx,8),%eax
  400fcb:	89 c0                	mov    %eax,%eax
  400fcd:	48 89 05 ac 34 20 00 	mov    %rax,0x2034ac(%rip)        # 604480 <buf_offset>
  400fd4:	c6 05 4d 41 20 00 63 	movb   $0x63,0x20414d(%rip)        # 605128 <target_prefix>
  400fdb:	83 3d a6 34 20 00 00 	cmpl   $0x0,0x2034a6(%rip)        # 604488 <notify>
  400fe2:	74 36                	je     40101a <initialize_target+0xda>
  400fe4:	83 3d 1d 35 20 00 00 	cmpl   $0x0,0x20351d(%rip)        # 604508 <is_checker>
  400feb:	75 2d                	jne    40101a <initialize_target+0xda>
  400fed:	48 89 e7             	mov    %rsp,%rdi
  400ff0:	e8 b4 19 00 00       	call   4029a9 <init_driver>
  400ff5:	85 c0                	test   %eax,%eax
  400ff7:	79 21                	jns    40101a <initialize_target+0xda>
  400ff9:	48 89 e2             	mov    %rsp,%rdx
  400ffc:	be 38 2d 40 00       	mov    $0x402d38,%esi
  401001:	bf 01 00 00 00       	mov    $0x1,%edi
  401006:	b8 00 00 00 00       	mov    $0x0,%eax
  40100b:	e8 10 fd ff ff       	call   400d20 <__printf_chk@plt>
  401010:	bf 08 00 00 00       	mov    $0x8,%edi
  401015:	e8 46 fd ff ff       	call   400d60 <exit@plt>
  40101a:	48 8b 84 24 08 20 00 	mov    0x2008(%rsp),%rax
  401021:	00 
  401022:	64 48 33 04 25 28 00 	xor    %fs:0x28,%rax
  401029:	00 00 
  40102b:	74 05                	je     401032 <initialize_target+0xf2>
  40102d:	e8 ee fb ff ff       	call   400c20 <__stack_chk_fail@plt>
  401032:	48 81 c4 18 20 00 00 	add    $0x2018,%rsp
  401039:	5b                   	pop    %rbx
  40103a:	5d                   	pop    %rbp
  40103b:	c3                   	ret

000000000040103c <main>:
  40103c:	41 56                	push   %r14
  40103e:	41 55                	push   %r13
  401040:	41 54                	push   %r12
  401042:	55                   	push   %rbp
  401043:	53                   	push   %rbx
  401044:	41 89 fc             	mov    %edi,%r12d
  401047:	48 89 f3             	mov    %rsi,%rbx
  40104a:	be 71 1d 40 00       	mov    $0x401d71,%esi
  40104f:	bf 0b 00 00 00       	mov    $0xb,%edi
  401054:	e8 47 fc ff ff       	call   400ca0 <signal@plt>
  401059:	be 23 1d 40 00       	mov    $0x401d23,%esi
  40105e:	bf 07 00 00 00       	mov    $0x7,%edi
  401063:	e8 38 fc ff ff       	call   400ca0 <signal@plt>
  401068:	be bf 1d 40 00       	mov    $0x401dbf,%esi
  40106d:	bf 04 00 00 00       	mov    $0x4,%edi
  401072:	e8 29 fc ff ff       	call   400ca0 <signal@plt>
  401077:	83 3d 8a 34 20 00 00 	cmpl   $0x0,0x20348a(%rip)        # 604508 <is_checker>
  40107e:	74 20                	je     4010a0 <main+0x64>
  401080:	be 0d 1e 40 00       	mov    $0x401e0d,%esi
  401085:	bf 0e 00 00 00       	mov    $0xe,%edi
  40108a:	e8 11 fc ff ff       	call   400ca0 <signal@plt>
  40108f:	bf 05 00 00 00       	mov    $0x5,%edi
  401094:	e8 b7 fb ff ff       	call   400c50 <alarm@plt>
  401099:	bd 02 2e 40 00       	mov    $0x402e02,%ebp
  40109e:	eb 05                	jmp    4010a5 <main+0x69>
  4010a0:	bd fd 2d 40 00       	mov    $0x402dfd,%ebp
  4010a5:	48 8b 05 f4 33 20 00 	mov    0x2033f4(%rip),%rax        # 6044a0 <stdin@GLIBC_2.2.5>
  4010ac:	48 89 05 3d 34 20 00 	mov    %rax,0x20343d(%rip)        # 6044f0 <infile>
  4010b3:	41 bd 00 00 00 00    	mov    $0x0,%r13d
  4010b9:	41 be 00 00 00 00    	mov    $0x0,%r14d
  4010bf:	e9 c6 00 00 00       	jmp    40118a <main+0x14e>
  4010c4:	83 e8 61             	sub    $0x61,%eax
  4010c7:	3c 10                	cmp    $0x10,%al
  4010c9:	0f 87 9c 00 00 00    	ja     40116b <main+0x12f>
  4010cf:	0f b6 c0             	movzbl %al,%eax
  4010d2:	ff 24 c5 48 2e 40 00 	jmp    *0x402e48(,%rax,8)
  4010d9:	48 8b 3b             	mov    (%rbx),%rdi
  4010dc:	e8 d5 fd ff ff       	call   400eb6 <usage>
  4010e1:	be dd 30 40 00       	mov    $0x4030dd,%esi
  4010e6:	48 8b 3d bb 33 20 00 	mov    0x2033bb(%rip),%rdi        # 6044a8 <optarg@GLIBC_2.2.5>
  4010ed:	e8 3e fc ff ff       	call   400d30 <fopen@plt>
  4010f2:	48 89 05 f7 33 20 00 	mov    %rax,0x2033f7(%rip)        # 6044f0 <infile>
  4010f9:	48 85 c0             	test   %rax,%rax
  4010fc:	0f 85 88 00 00 00    	jne    40118a <main+0x14e>
  401102:	48 8b 0d 9f 33 20 00 	mov    0x20339f(%rip),%rcx        # 6044a8 <optarg@GLIBC_2.2.5>
  401109:	ba 0a 2e 40 00       	mov    $0x402e0a,%edx
  40110e:	be 01 00 00 00       	mov    $0x1,%esi
  401113:	48 8b 3d a6 33 20 00 	mov    0x2033a6(%rip),%rdi        # 6044c0 <stderr@GLIBC_2.2.5>
  40111a:	e8 61 fc ff ff       	call   400d80 <__fprintf_chk@plt>
  40111f:	b8 01 00 00 00       	mov    $0x1,%eax
  401124:	e9 e4 00 00 00       	jmp    40120d <main+0x1d1>
  401129:	ba 10 00 00 00       	mov    $0x10,%edx
  40112e:	be 00 00 00 00       	mov    $0x0,%esi
  401133:	48 8b 3d 6e 33 20 00 	mov    0x20336e(%rip),%rdi        # 6044a8 <optarg@GLIBC_2.2.5>
  40113a:	e8 11 fc ff ff       	call   400d50 <strtoul@plt>
  40113f:	41 89 c6             	mov    %eax,%r14d
  401142:	eb 46                	jmp    40118a <main+0x14e>
  401144:	ba 0a 00 00 00       	mov    $0xa,%edx
  401149:	be 00 00 00 00       	mov    $0x0,%esi
  40114e:	48 8b 3d 53 33 20 00 	mov    0x203353(%rip),%rdi        # 6044a8 <optarg@GLIBC_2.2.5>
  401155:	e8 56 fb ff ff       	call   400cb0 <strtol@plt>
  40115a:	41 89 c5             	mov    %eax,%r13d
  40115d:	eb 2b                	jmp    40118a <main+0x14e>
  40115f:	c7 05 1f 33 20 00 00 	movl   $0x0,0x20331f(%rip)        # 604488 <notify>
  401166:	00 00 00 
  401169:	eb 1f                	jmp    40118a <main+0x14e>
  40116b:	0f be d2             	movsbl %dl,%edx
  40116e:	be 27 2e 40 00       	mov    $0x402e27,%esi
  401173:	bf 01 00 00 00       	mov    $0x1,%edi
  401178:	b8 00 00 00 00       	mov    $0x0,%eax
  40117d:	e8 9e fb ff ff       	call   400d20 <__printf_chk@plt>
  401182:	48 8b 3b             	mov    (%rbx),%rdi
  401185:	e8 2c fd ff ff       	call   400eb6 <usage>
  40118a:	48 89 ea             	mov    %rbp,%rdx
  40118d:	48 89 de             	mov    %rbx,%rsi
  401190:	44 89 e7             	mov    %r12d,%edi
  401193:	e8 a8 fb ff ff       	call   400d40 <getopt@plt>
  401198:	89 c2                	mov    %eax,%edx
  40119a:	3c ff                	cmp    $0xff,%al
  40119c:	0f 85 22 ff ff ff    	jne    4010c4 <main+0x88>
  4011a2:	be 00 00 00 00       	mov    $0x0,%esi
  4011a7:	44 89 ef             	mov    %r13d,%edi
  4011aa:	e8 91 fd ff ff       	call   400f40 <initialize_target>
  4011af:	83 3d 52 33 20 00 00 	cmpl   $0x0,0x203352(%rip)        # 604508 <is_checker>
  4011b6:	74 2a                	je     4011e2 <main+0x1a6>
  4011b8:	44 3b 35 41 33 20 00 	cmp    0x203341(%rip),%r14d        # 604500 <authkey>
  4011bf:	74 21                	je     4011e2 <main+0x1a6>
  4011c1:	44 89 f2             	mov    %r14d,%edx
  4011c4:	be 60 2d 40 00       	mov    $0x402d60,%esi
  4011c9:	bf 01 00 00 00       	mov    $0x1,%edi
  4011ce:	b8 00 00 00 00       	mov    $0x0,%eax
  4011d3:	e8 48 fb ff ff       	call   400d20 <__printf_chk@plt>
  4011d8:	b8 00 00 00 00       	mov    $0x0,%eax
  4011dd:	e8 dd 07 00 00       	call   4019bf <check_fail>
  4011e2:	8b 15 1c 33 20 00    	mov    0x20331c(%rip),%edx        # 604504 <cookie>
  4011e8:	be 3a 2e 40 00       	mov    $0x402e3a,%esi
  4011ed:	bf 01 00 00 00       	mov    $0x1,%edi
  4011f2:	b8 00 00 00 00       	mov    $0x0,%eax
  4011f7:	e8 24 fb ff ff       	call   400d20 <__printf_chk@plt>
  4011fc:	48 8b 3d 7d 32 20 00 	mov    0x20327d(%rip),%rdi        # 604480 <buf_offset>
  401203:	e8 05 0d 00 00       	call   401f0d <stable_launch>
  401208:	b8 00 00 00 00       	mov    $0x0,%eax
  40120d:	5b                   	pop    %rbx
  40120e:	5d                   	pop    %rbp
  40120f:	41 5c                	pop    %r12
  401211:	41 5d                	pop    %r13
  401213:	41 5e                	pop    %r14
  401215:	c3                   	ret

0000000000401216 <scramble>:
  401216:	48 83 ec 38          	sub    $0x38,%rsp
  40121a:	64 48 8b 04 25 28 00 	mov    %fs:0x28,%rax
  401221:	00 00 
  401223:	48 89 44 24 28       	mov    %rax,0x28(%rsp)
  401228:	31 c0                	xor    %eax,%eax
  40122a:	eb 10                	jmp    40123c <scramble+0x26>
  40122c:	69 d0 d4 2f 00 00    	imul   $0x2fd4,%eax,%edx
  401232:	01 fa                	add    %edi,%edx
  401234:	89 c1                	mov    %eax,%ecx
  401236:	89 14 8c             	mov    %edx,(%rsp,%rcx,4)
  401239:	83 c0 01             	add    $0x1,%eax
  40123c:	83 f8 09             	cmp    $0x9,%eax
  40123f:	76 eb                	jbe    40122c <scramble+0x16>
  401241:	8b 04 24             	mov    (%rsp),%eax
  401244:	69 c0 f6 13 00 00    	imul   $0x13f6,%eax,%eax
  40124a:	89 04 24             	mov    %eax,(%rsp)
  40124d:	8b 04 24             	mov    (%rsp),%eax
  401250:	69 c0 b5 d3 00 00    	imul   $0xd3b5,%eax,%eax
  401256:	89 04 24             	mov    %eax,(%rsp)
  401259:	8b 44 24 08          	mov    0x8(%rsp),%eax
  40125d:	69 c0 b5 e2 00 00    	imul   $0xe2b5,%eax,%eax
  401263:	89 44 24 08          	mov    %eax,0x8(%rsp)
  401267:	8b 04 24             	mov    (%rsp),%eax
  40126a:	69 c0 d1 ba 00 00    	imul   $0xbad1,%eax,%eax
  401270:	89 04 24             	mov    %eax,(%rsp)
  401273:	8b 44 24 18          	mov    0x18(%rsp),%eax
  401277:	69 c0 3f 54 00 00    	imul   $0x543f,%eax,%eax
  40127d:	89 44 24 18          	mov    %eax,0x18(%rsp)
  401281:	8b 44 24 18          	mov    0x18(%rsp),%eax
  401285:	69 c0 2e 53 00 00    	imul   $0x532e,%eax,%eax
  40128b:	89 44 24 18          	mov    %eax,0x18(%rsp)
  40128f:	8b 44 24 0c          	mov    0xc(%rsp),%eax
  401293:	69 c0 bd 28 00 00    	imul   $0x28bd,%eax,%eax
  401299:	89 44 24 0c          	mov    %eax,0xc(%rsp)
  40129d:	8b 44 24 04          	mov    0x4(%rsp),%eax
  4012a1:	69 c0 20 96 00 00    	imul   $0x9620,%eax,%eax
  4012a7:	89 44 24 04          	mov    %eax,0x4(%rsp)
  4012ab:	8b 44 24 20          	mov    0x20(%rsp),%eax
  4012af:	69 c0 67 90 00 00    	imul   $0x9067,%eax,%eax
  4012b5:	89 44 24 20          	mov    %eax,0x20(%rsp)
  4012b9:	8b 44 24 04          	mov    0x4(%rsp),%eax
  4012bd:	69 c0 3c c1 00 00    	imul   $0xc13c,%eax,%eax
  4012c3:	89 44 24 04          	mov    %eax,0x4(%rsp)
  4012c7:	8b 44 24 1c          	mov    0x1c(%rsp),%eax
  4012cb:	69 c0 dc 0a 00 00    	imul   $0xadc,%eax,%eax
  4012d1:	89 44 24 1c          	mov    %eax,0x1c(%rsp)
  4012d5:	8b 44 24 14          	mov    0x14(%rsp),%eax
  4012d9:	69 c0 97 65 00 00    	imul   $0x6597,%eax,%eax
  4012df:	89 44 24 14          	mov    %eax,0x14(%rsp)
  4012e3:	8b 04 24             	mov    (%rsp),%eax
  4012e6:	69 c0 41 3e 00 00    	imul   $0x3e41,%eax,%eax
  4012ec:	89 04 24             	mov    %eax,(%rsp)
  4012ef:	8b 44 24 04          	mov    0x4(%rsp),%eax
  4012f3:	69 c0 01 f1 00 00    	imul   $0xf101,%eax,%eax
  4012f9:	89 44 24 04          	mov    %eax,0x4(%rsp)
  4012fd:	8b 44 24 20          	mov    0x20(%rsp),%eax
  401301:	69 c0 e7 44 00 00    	imul   $0x44e7,%eax,%eax
  401307:	89 44 24 20          	mov    %eax,0x20(%rsp)
  40130b:	8b 44 24 1c          	mov    0x1c(%rsp),%eax
  40130f:	69 c0 c7 1a 00 00    	imul   $0x1ac7,%eax,%eax
  401315:	89 44 24 1c          	mov    %eax,0x1c(%rsp)
  401319:	8b 44 24 14          	mov    0x14(%rsp),%eax
  40131d:	69 c0 88 dc 00 00    	imul   $0xdc88,%eax,%eax
  401323:	89 44 24 14          	mov    %eax,0x14(%rsp)
  401327:	8b 44 24 18          	mov    0x18(%rsp),%eax
  40132b:	69 c0 93 21 00 00    	imul   $0x2193,%eax,%eax
  401331:	89 44 24 18          	mov    %eax,0x18(%rsp)
  401335:	8b 04 24             	mov    (%rsp),%eax
  401338:	69 c0 ab df 00 00    	imul   $0xdfab,%eax,%eax
  40133e:	89 04 24             	mov    %eax,(%rsp)
  401341:	8b 44 24 18          	mov    0x18(%rsp),%eax
  401345:	69 c0 2e 64 00 00    	imul   $0x642e,%eax,%eax
  40134b:	89 44 24 18          	mov    %eax,0x18(%rsp)
  40134f:	8b 04 24             	mov    (%rsp),%eax
  401352:	69 c0 62 fc 00 00    	imul   $0xfc62,%eax,%eax
  401358:	89 04 24             	mov    %eax,(%rsp)
  40135b:	8b 04 24             	mov    (%rsp),%eax
  40135e:	69 c0 d0 19 00 00    	imul   $0x19d0,%eax,%eax
  401364:	89 04 24             	mov    %eax,(%rsp)
  401367:	8b 44 24 08          	mov    0x8(%rsp),%eax
  40136b:	69 c0 d6 ec 00 00    	imul   $0xecd6,%eax,%eax
  401371:	89 44 24 08          	mov    %eax,0x8(%rsp)
  401375:	8b 44 24 1c          	mov    0x1c(%rsp),%eax
  401379:	69 c0 a3 3f 00 00    	imul   $0x3fa3,%eax,%eax
  40137f:	89 44 24 1c          	mov    %eax,0x1c(%rsp)
  401383:	8b 44 24 14          	mov    0x14(%rsp),%eax
  401387:	69 c0 f4 e7 00 00    	imul   $0xe7f4,%eax,%eax
  40138d:	89 44 24 14          	mov    %eax,0x14(%rsp)
  401391:	8b 44 24 24          	mov    0x24(%rsp),%eax
  401395:	69 c0 9d 7c 00 00    	imul   $0x7c9d,%eax,%eax
  40139b:	89 44 24 24          	mov    %eax,0x24(%rsp)
  40139f:	8b 44 24 20          	mov    0x20(%rsp),%eax
  4013a3:	69 c0 24 cc 00 00    	imul   $0xcc24,%eax,%eax
  4013a9:	89 44 24 20          	mov    %eax,0x20(%rsp)
  4013ad:	8b 44 24 18          	mov    0x18(%rsp),%eax
  4013b1:	69 c0 a8 97 00 00    	imul   $0x97a8,%eax,%eax
  4013b7:	89 44 24 18          	mov    %eax,0x18(%rsp)
  4013bb:	8b 44 24 0c          	mov    0xc(%rsp),%eax
  4013bf:	69 c0 50 c9 00 00    	imul   $0xc950,%eax,%eax
  4013c5:	89 44 24 0c          	mov    %eax,0xc(%rsp)
  4013c9:	8b 44 24 1c          	mov    0x1c(%rsp),%eax
  4013cd:	69 c0 59 f5 00 00    	imul   $0xf559,%eax,%eax
  4013d3:	89 44 24 1c          	mov    %eax,0x1c(%rsp)
  4013d7:	8b 44 24 18          	mov    0x18(%rsp),%eax
  4013db:	69 c0 b6 ef 00 00    	imul   $0xefb6,%eax,%eax
  4013e1:	89 44 24 18          	mov    %eax,0x18(%rsp)
  4013e5:	8b 44 24 10          	mov    0x10(%rsp),%eax
  4013e9:	69 c0 14 67 00 00    	imul   $0x6714,%eax,%eax
  4013ef:	89 44 24 10          	mov    %eax,0x10(%rsp)
  4013f3:	8b 44 24 14          	mov    0x14(%rsp),%eax
  4013f7:	69 c0 9d fe 00 00    	imul   $0xfe9d,%eax,%eax
  4013fd:	89 44 24 14          	mov    %eax,0x14(%rsp)
  401401:	8b 44 24 08          	mov    0x8(%rsp),%eax
  401405:	69 c0 7c 8b 00 00    	imul   $0x8b7c,%eax,%eax
  40140b:	89 44 24 08          	mov    %eax,0x8(%rsp)
  40140f:	8b 44 24 04          	mov    0x4(%rsp),%eax
  401413:	69 c0 0b 65 00 00    	imul   $0x650b,%eax,%eax
  401419:	89 44 24 04          	mov    %eax,0x4(%rsp)
  40141d:	8b 44 24 18          	mov    0x18(%rsp),%eax
  401421:	69 c0 32 12 00 00    	imul   $0x1232,%eax,%eax
  401427:	89 44 24 18          	mov    %eax,0x18(%rsp)
  40142b:	8b 44 24 0c          	mov    0xc(%rsp),%eax
  40142f:	69 c0 07 a7 00 00    	imul   $0xa707,%eax,%eax
  401435:	89 44 24 0c          	mov    %eax,0xc(%rsp)
  401439:	8b 44 24 04          	mov    0x4(%rsp),%eax
  40143d:	69 c0 8e 86 00 00    	imul   $0x868e,%eax,%eax
  401443:	89 44 24 04          	mov    %eax,0x4(%rsp)
  401447:	8b 44 24 04          	mov    0x4(%rsp),%eax
  40144b:	69 c0 f3 db 00 00    	imul   $0xdbf3,%eax,%eax
  401451:	89 44 24 04          	mov    %eax,0x4(%rsp)
  401455:	8b 44 24 20          	mov    0x20(%rsp),%eax
  401459:	69 c0 1b 11 00 00    	imul   $0x111b,%eax,%eax
  40145f:	89 44 24 20          	mov    %eax,0x20(%rsp)
  401463:	8b 44 24 08          	mov    0x8(%rsp),%eax
  401467:	69 c0 10 c7 00 00    	imul   $0xc710,%eax,%eax
  40146d:	89 44 24 08          	mov    %eax,0x8(%rsp)
  401471:	8b 44 24 04          	mov    0x4(%rsp),%eax
  401475:	69 c0 b9 b6 00 00    	imul   $0xb6b9,%eax,%eax
  40147b:	89 44 24 04          	mov    %eax,0x4(%rsp)
  40147f:	8b 44 24 0c          	mov    0xc(%rsp),%eax
  401483:	69 c0 ec 6f 00 00    	imul   $0x6fec,%eax,%eax
  401489:	89 44 24 0c          	mov    %eax,0xc(%rsp)
  40148d:	8b 44 24 20          	mov    0x20(%rsp),%eax
  401491:	69 c0 9b 9d 00 00    	imul   $0x9d9b,%eax,%eax
  401497:	89 44 24 20          	mov    %eax,0x20(%rsp)
  40149b:	8b 44 24 20          	mov    0x20(%rsp),%eax
  40149f:	69 c0 0b d7 00 00    	imul   $0xd70b,%eax,%eax
  4014a5:	89 44 24 20          	mov    %eax,0x20(%rsp)
  4014a9:	8b 44 24 0c          	mov    0xc(%rsp),%eax
  4014ad:	69 c0 74 47 00 00    	imul   $0x4774,%eax,%eax
  4014b3:	89 44 24 0c          	mov    %eax,0xc(%rsp)
  4014b7:	8b 44 24 08          	mov    0x8(%rsp),%eax
  4014bb:	69 c0 14 a3 00 00    	imul   $0xa314,%eax,%eax
  4014c1:	89 44 24 08          	mov    %eax,0x8(%rsp)
  4014c5:	8b 04 24             	mov    (%rsp),%eax
  4014c8:	69 c0 ff 92 00 00    	imul   $0x92ff,%eax,%eax
  4014ce:	89 04 24             	mov    %eax,(%rsp)
  4014d1:	8b 44 24 08          	mov    0x8(%rsp),%eax
  4014d5:	69 c0 30 37 00 00    	imul   $0x3730,%eax,%eax
  4014db:	89 44 24 08          	mov    %eax,0x8(%rsp)
  4014df:	8b 44 24 1c          	mov    0x1c(%rsp),%eax
  4014e3:	69 c0 fa 7f 00 00    	imul   $0x7ffa,%eax,%eax
  4014e9:	89 44 24 1c          	mov    %eax,0x1c(%rsp)
  4014ed:	8b 44 24 0c          	mov    0xc(%rsp),%eax
  4014f1:	69 c0 27 0e 00 00    	imul   $0xe27,%eax,%eax
  4014f7:	89 44 24 0c          	mov    %eax,0xc(%rsp)
  4014fb:	8b 44 24 20          	mov    0x20(%rsp),%eax
  4014ff:	69 c0 a9 fd 00 00    	imul   $0xfda9,%eax,%eax
  401505:	89 44 24 20          	mov    %eax,0x20(%rsp)
  401509:	8b 44 24 04          	mov    0x4(%rsp),%eax
  40150d:	69 c0 30 be 00 00    	imul   $0xbe30,%eax,%eax
  401513:	89 44 24 04          	mov    %eax,0x4(%rsp)
  401517:	8b 44 24 14          	mov    0x14(%rsp),%eax
  40151b:	69 c0 0c 49 00 00    	imul   $0x490c,%eax,%eax
  401521:	89 44 24 14          	mov    %eax,0x14(%rsp)
  401525:	8b 44 24 04          	mov    0x4(%rsp),%eax
  401529:	69 c0 68 4a 00 00    	imul   $0x4a68,%eax,%eax
  40152f:	89 44 24 04          	mov    %eax,0x4(%rsp)
  401533:	8b 44 24 04          	mov    0x4(%rsp),%eax
  401537:	69 c0 0b 5e 00 00    	imul   $0x5e0b,%eax,%eax
  40153d:	89 44 24 04          	mov    %eax,0x4(%rsp)
  401541:	8b 44 24 08          	mov    0x8(%rsp),%eax
  401545:	69 c0 df e7 00 00    	imul   $0xe7df,%eax,%eax
  40154b:	89 44 24 08          	mov    %eax,0x8(%rsp)
  40154f:	8b 44 24 0c          	mov    0xc(%rsp),%eax
  401553:	69 c0 ae a4 00 00    	imul   $0xa4ae,%eax,%eax
  401559:	89 44 24 0c          	mov    %eax,0xc(%rsp)
  40155d:	8b 44 24 04          	mov    0x4(%rsp),%eax
  401561:	69 c0 26 63 00 00    	imul   $0x6326,%eax,%eax
  401567:	89 44 24 04          	mov    %eax,0x4(%rsp)
  40156b:	8b 44 24 1c          	mov    0x1c(%rsp),%eax
  40156f:	69 c0 07 91 00 00    	imul   $0x9107,%eax,%eax
  401575:	89 44 24 1c          	mov    %eax,0x1c(%rsp)
  401579:	8b 44 24 24          	mov    0x24(%rsp),%eax
  40157d:	69 c0 3d d5 00 00    	imul   $0xd53d,%eax,%eax
  401583:	89 44 24 24          	mov    %eax,0x24(%rsp)
  401587:	8b 44 24 1c          	mov    0x1c(%rsp),%eax
  40158b:	69 c0 f2 00 00 00    	imul   $0xf2,%eax,%eax
  401591:	89 44 24 1c          	mov    %eax,0x1c(%rsp)
  401595:	8b 44 24 24          	mov    0x24(%rsp),%eax
  401599:	69 c0 04 87 00 00    	imul   $0x8704,%eax,%eax
  40159f:	89 44 24 24          	mov    %eax,0x24(%rsp)
  4015a3:	8b 44 24 10          	mov    0x10(%rsp),%eax
  4015a7:	69 c0 03 1a 00 00    	imul   $0x1a03,%eax,%eax
  4015ad:	89 44 24 10          	mov    %eax,0x10(%rsp)
  4015b1:	8b 44 24 08          	mov    0x8(%rsp),%eax
  4015b5:	69 c0 6d b2 00 00    	imul   $0xb26d,%eax,%eax
  4015bb:	89 44 24 08          	mov    %eax,0x8(%rsp)
  4015bf:	8b 44 24 20          	mov    0x20(%rsp),%eax
  4015c3:	69 c0 6f 5a 00 00    	imul   $0x5a6f,%eax,%eax
  4015c9:	89 44 24 20          	mov    %eax,0x20(%rsp)
  4015cd:	8b 44 24 1c          	mov    0x1c(%rsp),%eax
  4015d1:	69 c0 2b 2c 00 00    	imul   $0x2c2b,%eax,%eax
  4015d7:	89 44 24 1c          	mov    %eax,0x1c(%rsp)
  4015db:	8b 44 24 14          	mov    0x14(%rsp),%eax
  4015df:	69 c0 c3 75 00 00    	imul   $0x75c3,%eax,%eax
  4015e5:	89 44 24 14          	mov    %eax,0x14(%rsp)
  4015e9:	8b 44 24 24          	mov    0x24(%rsp),%eax
  4015ed:	69 c0 50 dc 00 00    	imul   $0xdc50,%eax,%eax
  4015f3:	89 44 24 24          	mov    %eax,0x24(%rsp)
  4015f7:	8b 44 24 0c          	mov    0xc(%rsp),%eax
  4015fb:	69 c0 7e 84 00 00    	imul   $0x847e,%eax,%eax
  401601:	89 44 24 0c          	mov    %eax,0xc(%rsp)
  401605:	8b 44 24 10          	mov    0x10(%rsp),%eax
  401609:	69 c0 f6 18 00 00    	imul   $0x18f6,%eax,%eax
  40160f:	89 44 24 10          	mov    %eax,0x10(%rsp)
  401613:	8b 44 24 1c          	mov    0x1c(%rsp),%eax
  401617:	69 c0 32 38 00 00    	imul   $0x3832,%eax,%eax
  40161d:	89 44 24 1c          	mov    %eax,0x1c(%rsp)
  401621:	8b 44 24 18          	mov    0x18(%rsp),%eax
  401625:	69 c0 4e f7 00 00    	imul   $0xf74e,%eax,%eax
  40162b:	89 44 24 18          	mov    %eax,0x18(%rsp)
  40162f:	8b 44 24 18          	mov    0x18(%rsp),%eax
  401633:	69 c0 a0 58 00 00    	imul   $0x58a0,%eax,%eax
  401639:	89 44 24 18          	mov    %eax,0x18(%rsp)
  40163d:	8b 44 24 14          	mov    0x14(%rsp),%eax
  401641:	69 c0 29 1f 00 00    	imul   $0x1f29,%eax,%eax
  401647:	89 44 24 14          	mov    %eax,0x14(%rsp)
  40164b:	8b 04 24             	mov    (%rsp),%eax
  40164e:	69 c0 a5 94 00 00    	imul   $0x94a5,%eax,%eax
  401654:	89 04 24             	mov    %eax,(%rsp)
  401657:	8b 44 24 0c          	mov    0xc(%rsp),%eax
  40165b:	69 c0 23 c2 00 00    	imul   $0xc223,%eax,%eax
  401661:	89 44 24 0c          	mov    %eax,0xc(%rsp)
  401665:	8b 44 24 04          	mov    0x4(%rsp),%eax
  401669:	69 c0 b7 6c 00 00    	imul   $0x6cb7,%eax,%eax
  40166f:	89 44 24 04          	mov    %eax,0x4(%rsp)
  401673:	8b 44 24 14          	mov    0x14(%rsp),%eax
  401677:	69 c0 89 29 00 00    	imul   $0x2989,%eax,%eax
  40167d:	89 44 24 14          	mov    %eax,0x14(%rsp)
  401681:	8b 44 24 20          	mov    0x20(%rsp),%eax
  401685:	69 c0 5b 07 00 00    	imul   $0x75b,%eax,%eax
  40168b:	89 44 24 20          	mov    %eax,0x20(%rsp)
  40168f:	8b 44 24 20          	mov    0x20(%rsp),%eax
  401693:	69 c0 b9 20 00 00    	imul   $0x20b9,%eax,%eax
  401699:	89 44 24 20          	mov    %eax,0x20(%rsp)
  40169d:	8b 44 24 18          	mov    0x18(%rsp),%eax
  4016a1:	69 c0 8b 9c 00 00    	imul   $0x9c8b,%eax,%eax
  4016a7:	89 44 24 18          	mov    %eax,0x18(%rsp)
  4016ab:	8b 44 24 18          	mov    0x18(%rsp),%eax
  4016af:	69 c0 e3 b9 00 00    	imul   $0xb9e3,%eax,%eax
  4016b5:	89 44 24 18          	mov    %eax,0x18(%rsp)
  4016b9:	8b 44 24 18          	mov    0x18(%rsp),%eax
  4016bd:	69 c0 3f 37 00 00    	imul   $0x373f,%eax,%eax
  4016c3:	89 44 24 18          	mov    %eax,0x18(%rsp)
  4016c7:	8b 44 24 04          	mov    0x4(%rsp),%eax
  4016cb:	69 c0 1d d1 00 00    	imul   $0xd11d,%eax,%eax
  4016d1:	89 44 24 04          	mov    %eax,0x4(%rsp)
  4016d5:	8b 44 24 1c          	mov    0x1c(%rsp),%eax
  4016d9:	69 c0 ed bc 00 00    	imul   $0xbced,%eax,%eax
  4016df:	89 44 24 1c          	mov    %eax,0x1c(%rsp)
  4016e3:	8b 44 24 14          	mov    0x14(%rsp),%eax
  4016e7:	69 c0 47 9e 00 00    	imul   $0x9e47,%eax,%eax
  4016ed:	89 44 24 14          	mov    %eax,0x14(%rsp)
  4016f1:	8b 44 24 18          	mov    0x18(%rsp),%eax
  4016f5:	69 c0 e8 ea 00 00    	imul   $0xeae8,%eax,%eax
  4016fb:	89 44 24 18          	mov    %eax,0x18(%rsp)
  4016ff:	8b 44 24 18          	mov    0x18(%rsp),%eax
  401703:	69 c0 ff d1 00 00    	imul   $0xd1ff,%eax,%eax
  401709:	89 44 24 18          	mov    %eax,0x18(%rsp)
  40170d:	8b 44 24 08          	mov    0x8(%rsp),%eax
  401711:	69 c0 0a f0 00 00    	imul   $0xf00a,%eax,%eax
  401717:	89 44 24 08          	mov    %eax,0x8(%rsp)
  40171b:	8b 44 24 20          	mov    0x20(%rsp),%eax
  40171f:	69 c0 2f 2d 00 00    	imul   $0x2d2f,%eax,%eax
  401725:	89 44 24 20          	mov    %eax,0x20(%rsp)
  401729:	8b 04 24             	mov    (%rsp),%eax
  40172c:	69 c0 8e e5 00 00    	imul   $0xe58e,%eax,%eax
  401732:	89 04 24             	mov    %eax,(%rsp)
  401735:	ba 00 00 00 00       	mov    $0x0,%edx
  40173a:	b8 00 00 00 00       	mov    $0x0,%eax
  40173f:	eb 0a                	jmp    40174b <scramble+0x535>
  401741:	89 d1                	mov    %edx,%ecx
  401743:	8b 0c 8c             	mov    (%rsp,%rcx,4),%ecx
  401746:	01 c8                	add    %ecx,%eax
  401748:	83 c2 01             	add    $0x1,%edx
  40174b:	83 fa 09             	cmp    $0x9,%edx
  40174e:	76 f1                	jbe    401741 <scramble+0x52b>
  401750:	48 8b 74 24 28       	mov    0x28(%rsp),%rsi
  401755:	64 48 33 34 25 28 00 	xor    %fs:0x28,%rsi
  40175c:	00 00 
  40175e:	74 05                	je     401765 <scramble+0x54f>
  401760:	e8 bb f4 ff ff       	call   400c20 <__stack_chk_fail@plt>
  401765:	48 83 c4 38          	add    $0x38,%rsp
  401769:	c3                   	ret

000000000040176a <getbuf>:
  40176a:	48 83 ec 38          	sub    $0x38,%rsp
  40176e:	48 89 e7             	mov    %rsp,%rdi
  401771:	e8 7e 02 00 00       	call   4019f4 <Gets>
  401776:	b8 01 00 00 00       	mov    $0x1,%eax
  40177b:	48 83 c4 38          	add    $0x38,%rsp
  40177f:	c3                   	ret

0000000000401780 <touch1>:
  401780:	48 83 ec 08          	sub    $0x8,%rsp
  401784:	c7 05 6e 2d 20 00 01 	movl   $0x1,0x202d6e(%rip)        # 6044fc <vlevel>
  40178b:	00 00 00 
  40178e:	bf 36 2f 40 00       	mov    $0x402f36,%edi
  401793:	e8 68 f4 ff ff       	call   400c00 <puts@plt>
  401798:	bf 01 00 00 00       	mov    $0x1,%edi
  40179d:	e8 97 04 00 00       	call   401c39 <validate>
  4017a2:	bf 00 00 00 00       	mov    $0x0,%edi
  4017a7:	e8 b4 f5 ff ff       	call   400d60 <exit@plt>

00000000004017ac <touch2>:
  4017ac:	48 83 ec 08          	sub    $0x8,%rsp
  4017b0:	89 fa                	mov    %edi,%edx
  4017b2:	c7 05 40 2d 20 00 02 	movl   $0x2,0x202d40(%rip)        # 6044fc <vlevel>
  4017b9:	00 00 00 
  4017bc:	39 3d 42 2d 20 00    	cmp    %edi,0x202d42(%rip)        # 604504 <cookie>
  4017c2:	75 20                	jne    4017e4 <touch2+0x38>
  4017c4:	be 58 2f 40 00       	mov    $0x402f58,%esi
  4017c9:	bf 01 00 00 00       	mov    $0x1,%edi
  4017ce:	b8 00 00 00 00       	mov    $0x0,%eax
  4017d3:	e8 48 f5 ff ff       	call   400d20 <__printf_chk@plt>
  4017d8:	bf 02 00 00 00       	mov    $0x2,%edi
  4017dd:	e8 57 04 00 00       	call   401c39 <validate>
  4017e2:	eb 1e                	jmp    401802 <touch2+0x56>
  4017e4:	be 80 2f 40 00       	mov    $0x402f80,%esi
  4017e9:	bf 01 00 00 00       	mov    $0x1,%edi
  4017ee:	b8 00 00 00 00       	mov    $0x0,%eax
  4017f3:	e8 28 f5 ff ff       	call   400d20 <__printf_chk@plt>
  4017f8:	bf 02 00 00 00       	mov    $0x2,%edi
  4017fd:	e8 f9 04 00 00       	call   401cfb <fail>
  401802:	bf 00 00 00 00       	mov    $0x0,%edi
  401807:	e8 54 f5 ff ff       	call   400d60 <exit@plt>

000000000040180c <hexmatch>:
  40180c:	41 54                	push   %r12
  40180e:	55                   	push   %rbp
  40180f:	53                   	push   %rbx
  401810:	48 83 c4 80          	add    $0xffffffffffffff80,%rsp
  401814:	89 fd                	mov    %edi,%ebp
  401816:	48 89 f3             	mov    %rsi,%rbx
  401819:	64 48 8b 04 25 28 00 	mov    %fs:0x28,%rax
  401820:	00 00 
  401822:	48 89 44 24 78       	mov    %rax,0x78(%rsp)
  401827:	31 c0                	xor    %eax,%eax
  401829:	e8 b2 f4 ff ff       	call   400ce0 <random@plt>
  40182e:	48 89 c1             	mov    %rax,%rcx
  401831:	48 ba 0b d7 a3 70 3d 	movabs $0xa3d70a3d70a3d70b,%rdx
  401838:	0a d7 a3 
  40183b:	48 f7 ea             	imul   %rdx
  40183e:	48 01 ca             	add    %rcx,%rdx
  401841:	48 c1 fa 06          	sar    $0x6,%rdx
  401845:	48 89 c8             	mov    %rcx,%rax
  401848:	48 c1 f8 3f          	sar    $0x3f,%rax
  40184c:	48 29 c2             	sub    %rax,%rdx
  40184f:	48 8d 04 92          	lea    (%rdx,%rdx,4),%rax
  401853:	48 8d 14 80          	lea    (%rax,%rax,4),%rdx
  401857:	48 8d 04 95 00 00 00 	lea    0x0(,%rdx,4),%rax
  40185e:	00 
  40185f:	48 29 c1             	sub    %rax,%rcx
  401862:	4c 8d 24 0c          	lea    (%rsp,%rcx,1),%r12
  401866:	41 89 e8             	mov    %ebp,%r8d
  401869:	b9 53 2f 40 00       	mov    $0x402f53,%ecx
  40186e:	48 c7 c2 ff ff ff ff 	mov    $0xffffffffffffffff,%rdx
  401875:	be 01 00 00 00       	mov    $0x1,%esi
  40187a:	4c 89 e7             	mov    %r12,%rdi
  40187d:	b8 00 00 00 00       	mov    $0x0,%eax
  401882:	e8 09 f5 ff ff       	call   400d90 <__sprintf_chk@plt>
  401887:	ba 09 00 00 00       	mov    $0x9,%edx
  40188c:	4c 89 e6             	mov    %r12,%rsi
  40188f:	48 89 df             	mov    %rbx,%rdi
  401892:	e8 49 f3 ff ff       	call   400be0 <strncmp@plt>
  401897:	85 c0                	test   %eax,%eax
  401899:	0f 94 c0             	sete   %al
  40189c:	48 8b 5c 24 78       	mov    0x78(%rsp),%rbx
  4018a1:	64 48 33 1c 25 28 00 	xor    %fs:0x28,%rbx
  4018a8:	00 00 
  4018aa:	74 05                	je     4018b1 <hexmatch+0xa5>
  4018ac:	e8 6f f3 ff ff       	call   400c20 <__stack_chk_fail@plt>
  4018b1:	0f b6 c0             	movzbl %al,%eax
  4018b4:	48 83 ec 80          	sub    $0xffffffffffffff80,%rsp
  4018b8:	5b                   	pop    %rbx
  4018b9:	5d                   	pop    %rbp
  4018ba:	41 5c                	pop    %r12
  4018bc:	c3                   	ret

00000000004018bd <touch3>:
  4018bd:	53                   	push   %rbx
  4018be:	48 89 fb             	mov    %rdi,%rbx
  4018c1:	c7 05 31 2c 20 00 03 	movl   $0x3,0x202c31(%rip)        # 6044fc <vlevel>
  4018c8:	00 00 00 
  4018cb:	48 89 fe             	mov    %rdi,%rsi
  4018ce:	8b 3d 30 2c 20 00    	mov    0x202c30(%rip),%edi        # 604504 <cookie>
  4018d4:	e8 33 ff ff ff       	call   40180c <hexmatch>
  4018d9:	85 c0                	test   %eax,%eax
  4018db:	74 23                	je     401900 <touch3+0x43>
  4018dd:	48 89 da             	mov    %rbx,%rdx
  4018e0:	be a8 2f 40 00       	mov    $0x402fa8,%esi
  4018e5:	bf 01 00 00 00       	mov    $0x1,%edi
  4018ea:	b8 00 00 00 00       	mov    $0x0,%eax
  4018ef:	e8 2c f4 ff ff       	call   400d20 <__printf_chk@plt>
  4018f4:	bf 03 00 00 00       	mov    $0x3,%edi
  4018f9:	e8 3b 03 00 00       	call   401c39 <validate>
  4018fe:	eb 21                	jmp    401921 <touch3+0x64>
  401900:	48 89 da             	mov    %rbx,%rdx
  401903:	be d0 2f 40 00       	mov    $0x402fd0,%esi
  401908:	bf 01 00 00 00       	mov    $0x1,%edi
  40190d:	b8 00 00 00 00       	mov    $0x0,%eax
  401912:	e8 09 f4 ff ff       	call   400d20 <__printf_chk@plt>
  401917:	bf 03 00 00 00       	mov    $0x3,%edi
  40191c:	e8 da 03 00 00       	call   401cfb <fail>
  401921:	bf 00 00 00 00       	mov    $0x0,%edi
  401926:	e8 35 f4 ff ff       	call   400d60 <exit@plt>

000000000040192b <test>:
  40192b:	48 83 ec 08          	sub    $0x8,%rsp
  40192f:	b8 00 00 00 00       	mov    $0x0,%eax
  401934:	e8 31 fe ff ff       	call   40176a <getbuf>
  401939:	89 c2                	mov    %eax,%edx
  40193b:	be f8 2f 40 00       	mov    $0x402ff8,%esi
  401940:	bf 01 00 00 00       	mov    $0x1,%edi
  401945:	b8 00 00 00 00       	mov    $0x0,%eax
  40194a:	e8 d1 f3 ff ff       	call   400d20 <__printf_chk@plt>
  40194f:	48 83 c4 08          	add    $0x8,%rsp
  401953:	c3                   	ret

0000000000401954 <save_char>:
  401954:	8b 05 ca 37 20 00    	mov    0x2037ca(%rip),%eax        # 605124 <gets_cnt>
  40195a:	3d ff 03 00 00       	cmp    $0x3ff,%eax
  40195f:	7f 49                	jg     4019aa <save_char+0x56>
  401961:	8d 14 40             	lea    (%rax,%rax,2),%edx
  401964:	89 f9                	mov    %edi,%ecx
  401966:	c0 e9 04             	shr    $0x4,%cl
  401969:	83 e1 0f             	and    $0xf,%ecx
  40196c:	0f b6 b1 20 33 40 00 	movzbl 0x403320(%rcx),%esi
  401973:	48 63 ca             	movslq %edx,%rcx
  401976:	40 88 b1 20 45 60 00 	mov    %sil,0x604520(%rcx)
  40197d:	8d 4a 01             	lea    0x1(%rdx),%ecx
  401980:	83 e7 0f             	and    $0xf,%edi
  401983:	0f b6 b7 20 33 40 00 	movzbl 0x403320(%rdi),%esi
  40198a:	48 63 c9             	movslq %ecx,%rcx
  40198d:	40 88 b1 20 45 60 00 	mov    %sil,0x604520(%rcx)
  401994:	83 c2 02             	add    $0x2,%edx
  401997:	48 63 d2             	movslq %edx,%rdx
  40199a:	c6 82 20 45 60 00 20 	movb   $0x20,0x604520(%rdx)
  4019a1:	83 c0 01             	add    $0x1,%eax
  4019a4:	89 05 7a 37 20 00    	mov    %eax,0x20377a(%rip)        # 605124 <gets_cnt>
  4019aa:	f3 c3                	repz ret

00000000004019ac <save_term>:
  4019ac:	8b 05 72 37 20 00    	mov    0x203772(%rip),%eax        # 605124 <gets_cnt>
  4019b2:	8d 04 40             	lea    (%rax,%rax,2),%eax
  4019b5:	48 98                	cltq
  4019b7:	c6 80 20 45 60 00 00 	movb   $0x0,0x604520(%rax)
  4019be:	c3                   	ret

00000000004019bf <check_fail>:
  4019bf:	48 83 ec 08          	sub    $0x8,%rsp
  4019c3:	0f be 15 5e 37 20 00 	movsbl 0x20375e(%rip),%edx        # 605128 <target_prefix>
  4019ca:	41 b8 20 45 60 00    	mov    $0x604520,%r8d
  4019d0:	8b 0d 22 2b 20 00    	mov    0x202b22(%rip),%ecx        # 6044f8 <check_level>
  4019d6:	be 1b 30 40 00       	mov    $0x40301b,%esi
  4019db:	bf 01 00 00 00       	mov    $0x1,%edi
  4019e0:	b8 00 00 00 00       	mov    $0x0,%eax
  4019e5:	e8 36 f3 ff ff       	call   400d20 <__printf_chk@plt>
  4019ea:	bf 01 00 00 00       	mov    $0x1,%edi
  4019ef:	e8 6c f3 ff ff       	call   400d60 <exit@plt>

00000000004019f4 <Gets>:
  4019f4:	41 54                	push   %r12
  4019f6:	55                   	push   %rbp
  4019f7:	53                   	push   %rbx
  4019f8:	49 89 fc             	mov    %rdi,%r12
  4019fb:	c7 05 1f 37 20 00 00 	movl   $0x0,0x20371f(%rip)        # 605124 <gets_cnt>
  401a02:	00 00 00 
  401a05:	48 89 fb             	mov    %rdi,%rbx
  401a08:	eb 11                	jmp    401a1b <Gets+0x27>
  401a0a:	48 8d 6b 01          	lea    0x1(%rbx),%rbp
  401a0e:	88 03                	mov    %al,(%rbx)
  401a10:	0f b6 f8             	movzbl %al,%edi
  401a13:	e8 3c ff ff ff       	call   401954 <save_char>
  401a18:	48 89 eb             	mov    %rbp,%rbx
  401a1b:	48 8b 3d ce 2a 20 00 	mov    0x202ace(%rip),%rdi        # 6044f0 <infile>
  401a22:	e8 c9 f2 ff ff       	call   400cf0 <_IO_getc@plt>
  401a27:	83 f8 ff             	cmp    $0xffffffff,%eax
  401a2a:	74 05                	je     401a31 <Gets+0x3d>
  401a2c:	83 f8 0a             	cmp    $0xa,%eax
  401a2f:	75 d9                	jne    401a0a <Gets+0x16>
  401a31:	c6 03 00             	movb   $0x0,(%rbx)
  401a34:	b8 00 00 00 00       	mov    $0x0,%eax
  401a39:	e8 6e ff ff ff       	call   4019ac <save_term>
  401a3e:	4c 89 e0             	mov    %r12,%rax
  401a41:	5b                   	pop    %rbx
  401a42:	5d                   	pop    %rbp
  401a43:	41 5c                	pop    %r12
  401a45:	c3                   	ret

0000000000401a46 <notify_server>:
  401a46:	53                   	push   %rbx
  401a47:	48 81 ec 10 40 00 00 	sub    $0x4010,%rsp
  401a4e:	64 48 8b 04 25 28 00 	mov    %fs:0x28,%rax
  401a55:	00 00 
  401a57:	48 89 84 24 08 40 00 	mov    %rax,0x4008(%rsp)
  401a5e:	00 
  401a5f:	31 c0                	xor    %eax,%eax
  401a61:	83 3d a0 2a 20 00 00 	cmpl   $0x0,0x202aa0(%rip)        # 604508 <is_checker>
  401a68:	0f 85 aa 01 00 00    	jne    401c18 <notify_server+0x1d2>
  401a6e:	89 fb                	mov    %edi,%ebx
  401a70:	8b 05 ae 36 20 00    	mov    0x2036ae(%rip),%eax        # 605124 <gets_cnt>
  401a76:	83 c0 64             	add    $0x64,%eax
  401a79:	3d 00 20 00 00       	cmp    $0x2000,%eax
  401a7e:	7e 1e                	jle    401a9e <notify_server+0x58>
  401a80:	be 50 31 40 00       	mov    $0x403150,%esi
  401a85:	bf 01 00 00 00       	mov    $0x1,%edi
  401a8a:	b8 00 00 00 00       	mov    $0x0,%eax
  401a8f:	e8 8c f2 ff ff       	call   400d20 <__printf_chk@plt>
  401a94:	bf 01 00 00 00       	mov    $0x1,%edi
  401a99:	e8 c2 f2 ff ff       	call   400d60 <exit@plt>
  401a9e:	0f be 05 83 36 20 00 	movsbl 0x203683(%rip),%eax        # 605128 <target_prefix>
  401aa5:	83 3d dc 29 20 00 00 	cmpl   $0x0,0x2029dc(%rip)        # 604488 <notify>
  401aac:	74 08                	je     401ab6 <notify_server+0x70>
  401aae:	8b 15 4c 2a 20 00    	mov    0x202a4c(%rip),%edx        # 604500 <authkey>
  401ab4:	eb 05                	jmp    401abb <notify_server+0x75>
  401ab6:	ba ff ff ff ff       	mov    $0xffffffff,%edx
  401abb:	85 db                	test   %ebx,%ebx
  401abd:	74 08                	je     401ac7 <notify_server+0x81>
  401abf:	41 b9 31 30 40 00    	mov    $0x403031,%r9d
  401ac5:	eb 06                	jmp    401acd <notify_server+0x87>
  401ac7:	41 b9 36 30 40 00    	mov    $0x403036,%r9d
  401acd:	68 20 45 60 00       	push   $0x604520
  401ad2:	56                   	push   %rsi
  401ad3:	50                   	push   %rax
  401ad4:	52                   	push   %rdx
  401ad5:	44 8b 05 6c 26 20 00 	mov    0x20266c(%rip),%r8d        # 604148 <target_id>
  401adc:	b9 3b 30 40 00       	mov    $0x40303b,%ecx
  401ae1:	ba 00 20 00 00       	mov    $0x2000,%edx
  401ae6:	be 01 00 00 00       	mov    $0x1,%esi
  401aeb:	48 8d 7c 24 20       	lea    0x20(%rsp),%rdi
  401af0:	b8 00 00 00 00       	mov    $0x0,%eax
  401af5:	e8 96 f2 ff ff       	call   400d90 <__sprintf_chk@plt>
  401afa:	48 83 c4 20          	add    $0x20,%rsp
  401afe:	83 3d 83 29 20 00 00 	cmpl   $0x0,0x202983(%rip)        # 604488 <notify>
  401b05:	0f 84 81 00 00 00    	je     401b8c <notify_server+0x146>
  401b0b:	85 db                	test   %ebx,%ebx
  401b0d:	74 6e                	je     401b7d <notify_server+0x137>
  401b0f:	4c 8d 8c 24 00 20 00 	lea    0x2000(%rsp),%r9
  401b16:	00 
  401b17:	41 b8 00 00 00 00    	mov    $0x0,%r8d
  401b1d:	48 89 e1             	mov    %rsp,%rcx
  401b20:	48 8b 15 29 26 20 00 	mov    0x202629(%rip),%rdx        # 604150 <lab>
  401b27:	48 8b 35 2a 26 20 00 	mov    0x20262a(%rip),%rsi        # 604158 <course>
  401b2e:	48 8b 3d 0b 26 20 00 	mov    0x20260b(%rip),%rdi        # 604140 <user_id>
  401b35:	e8 d3 0f 00 00       	call   402b0d <driver_post>
  401b3a:	85 c0                	test   %eax,%eax
  401b3c:	79 26                	jns    401b64 <notify_server+0x11e>
  401b3e:	48 8d 94 24 00 20 00 	lea    0x2000(%rsp),%rdx
  401b45:	00 
  401b46:	be 57 30 40 00       	mov    $0x403057,%esi
  401b4b:	bf 01 00 00 00       	mov    $0x1,%edi
  401b50:	b8 00 00 00 00       	mov    $0x0,%eax
  401b55:	e8 c6 f1 ff ff       	call   400d20 <__printf_chk@plt>
  401b5a:	bf 01 00 00 00       	mov    $0x1,%edi
  401b5f:	e8 fc f1 ff ff       	call   400d60 <exit@plt>
  401b64:	bf 80 31 40 00       	mov    $0x403180,%edi
  401b69:	e8 92 f0 ff ff       	call   400c00 <puts@plt>
  401b6e:	bf 63 30 40 00       	mov    $0x403063,%edi
  401b73:	e8 88 f0 ff ff       	call   400c00 <puts@plt>
  401b78:	e9 9b 00 00 00       	jmp    401c18 <notify_server+0x1d2>
  401b7d:	bf 6d 30 40 00       	mov    $0x40306d,%edi
  401b82:	e8 79 f0 ff ff       	call   400c00 <puts@plt>
  401b87:	e9 8c 00 00 00       	jmp    401c18 <notify_server+0x1d2>
  401b8c:	85 db                	test   %ebx,%ebx
  401b8e:	74 07                	je     401b97 <notify_server+0x151>
  401b90:	ba 31 30 40 00       	mov    $0x403031,%edx
  401b95:	eb 05                	jmp    401b9c <notify_server+0x156>
  401b97:	ba 36 30 40 00       	mov    $0x403036,%edx
  401b9c:	be b8 31 40 00       	mov    $0x4031b8,%esi
  401ba1:	bf 01 00 00 00       	mov    $0x1,%edi
  401ba6:	b8 00 00 00 00       	mov    $0x0,%eax
  401bab:	e8 70 f1 ff ff       	call   400d20 <__printf_chk@plt>
  401bb0:	48 8b 15 89 25 20 00 	mov    0x202589(%rip),%rdx        # 604140 <user_id>
  401bb7:	be 74 30 40 00       	mov    $0x403074,%esi
  401bbc:	bf 01 00 00 00       	mov    $0x1,%edi
  401bc1:	b8 00 00 00 00       	mov    $0x0,%eax
  401bc6:	e8 55 f1 ff ff       	call   400d20 <__printf_chk@plt>
  401bcb:	48 8b 15 86 25 20 00 	mov    0x202586(%rip),%rdx        # 604158 <course>
  401bd2:	be 81 30 40 00       	mov    $0x403081,%esi
  401bd7:	bf 01 00 00 00       	mov    $0x1,%edi
  401bdc:	b8 00 00 00 00       	mov    $0x0,%eax
  401be1:	e8 3a f1 ff ff       	call   400d20 <__printf_chk@plt>
  401be6:	48 8b 15 63 25 20 00 	mov    0x202563(%rip),%rdx        # 604150 <lab>
  401bed:	be 8d 30 40 00       	mov    $0x40308d,%esi
  401bf2:	bf 01 00 00 00       	mov    $0x1,%edi
  401bf7:	b8 00 00 00 00       	mov    $0x0,%eax
  401bfc:	e8 1f f1 ff ff       	call   400d20 <__printf_chk@plt>
  401c01:	48 89 e2             	mov    %rsp,%rdx
  401c04:	be 96 30 40 00       	mov    $0x403096,%esi
  401c09:	bf 01 00 00 00       	mov    $0x1,%edi
  401c0e:	b8 00 00 00 00       	mov    $0x0,%eax
  401c13:	e8 08 f1 ff ff       	call   400d20 <__printf_chk@plt>
  401c18:	48 8b 84 24 08 40 00 	mov    0x4008(%rsp),%rax
  401c1f:	00 
  401c20:	64 48 33 04 25 28 00 	xor    %fs:0x28,%rax
  401c27:	00 00 
  401c29:	74 05                	je     401c30 <notify_server+0x1ea>
  401c2b:	e8 f0 ef ff ff       	call   400c20 <__stack_chk_fail@plt>
  401c30:	48 81 c4 10 40 00 00 	add    $0x4010,%rsp
  401c37:	5b                   	pop    %rbx
  401c38:	c3                   	ret

0000000000401c39 <validate>:
  401c39:	53                   	push   %rbx
  401c3a:	89 fb                	mov    %edi,%ebx
  401c3c:	83 3d c5 28 20 00 00 	cmpl   $0x0,0x2028c5(%rip)        # 604508 <is_checker>
  401c43:	74 6b                	je     401cb0 <validate+0x77>
  401c45:	39 3d b1 28 20 00    	cmp    %edi,0x2028b1(%rip)        # 6044fc <vlevel>
  401c4b:	74 14                	je     401c61 <validate+0x28>
  401c4d:	bf a2 30 40 00       	mov    $0x4030a2,%edi
  401c52:	e8 a9 ef ff ff       	call   400c00 <puts@plt>
  401c57:	b8 00 00 00 00       	mov    $0x0,%eax
  401c5c:	e8 5e fd ff ff       	call   4019bf <check_fail>
  401c61:	8b 15 91 28 20 00    	mov    0x202891(%rip),%edx        # 6044f8 <check_level>
  401c67:	39 d7                	cmp    %edx,%edi
  401c69:	74 20                	je     401c8b <validate+0x52>
  401c6b:	89 f9                	mov    %edi,%ecx
  401c6d:	be e0 31 40 00       	mov    $0x4031e0,%esi
  401c72:	bf 01 00 00 00       	mov    $0x1,%edi
  401c77:	b8 00 00 00 00       	mov    $0x0,%eax
  401c7c:	e8 9f f0 ff ff       	call   400d20 <__printf_chk@plt>
  401c81:	b8 00 00 00 00       	mov    $0x0,%eax
  401c86:	e8 34 fd ff ff       	call   4019bf <check_fail>
  401c8b:	0f be 15 96 34 20 00 	movsbl 0x203496(%rip),%edx        # 605128 <target_prefix>
  401c92:	41 b8 20 45 60 00    	mov    $0x604520,%r8d
  401c98:	89 f9                	mov    %edi,%ecx
  401c9a:	be c0 30 40 00       	mov    $0x4030c0,%esi
  401c9f:	bf 01 00 00 00       	mov    $0x1,%edi
  401ca4:	b8 00 00 00 00       	mov    $0x0,%eax
  401ca9:	e8 72 f0 ff ff       	call   400d20 <__printf_chk@plt>
  401cae:	eb 49                	jmp    401cf9 <validate+0xc0>
  401cb0:	3b 3d 46 28 20 00    	cmp    0x202846(%rip),%edi        # 6044fc <vlevel>
  401cb6:	74 18                	je     401cd0 <validate+0x97>
  401cb8:	bf a2 30 40 00       	mov    $0x4030a2,%edi
  401cbd:	e8 3e ef ff ff       	call   400c00 <puts@plt>
  401cc2:	89 de                	mov    %ebx,%esi
  401cc4:	bf 00 00 00 00       	mov    $0x0,%edi
  401cc9:	e8 78 fd ff ff       	call   401a46 <notify_server>
  401cce:	eb 29                	jmp    401cf9 <validate+0xc0>
  401cd0:	0f be 0d 51 34 20 00 	movsbl 0x203451(%rip),%ecx        # 605128 <target_prefix>
  401cd7:	89 fa                	mov    %edi,%edx
  401cd9:	be 08 32 40 00       	mov    $0x403208,%esi
  401cde:	bf 01 00 00 00       	mov    $0x1,%edi
  401ce3:	b8 00 00 00 00       	mov    $0x0,%eax
  401ce8:	e8 33 f0 ff ff       	call   400d20 <__printf_chk@plt>
  401ced:	89 de                	mov    %ebx,%esi
  401cef:	bf 01 00 00 00       	mov    $0x1,%edi
  401cf4:	e8 4d fd ff ff       	call   401a46 <notify_server>
  401cf9:	5b                   	pop    %rbx
  401cfa:	c3                   	ret

0000000000401cfb <fail>:
  401cfb:	48 83 ec 08          	sub    $0x8,%rsp
  401cff:	83 3d 02 28 20 00 00 	cmpl   $0x0,0x202802(%rip)        # 604508 <is_checker>
  401d06:	74 0a                	je     401d12 <fail+0x17>
  401d08:	b8 00 00 00 00       	mov    $0x0,%eax
  401d0d:	e8 ad fc ff ff       	call   4019bf <check_fail>
  401d12:	89 fe                	mov    %edi,%esi
  401d14:	bf 00 00 00 00       	mov    $0x0,%edi
  401d19:	e8 28 fd ff ff       	call   401a46 <notify_server>
  401d1e:	48 83 c4 08          	add    $0x8,%rsp
  401d22:	c3                   	ret

0000000000401d23 <bushandler>:
  401d23:	48 83 ec 08          	sub    $0x8,%rsp
  401d27:	83 3d da 27 20 00 00 	cmpl   $0x0,0x2027da(%rip)        # 604508 <is_checker>
  401d2e:	74 14                	je     401d44 <bushandler+0x21>
  401d30:	bf d5 30 40 00       	mov    $0x4030d5,%edi
  401d35:	e8 c6 ee ff ff       	call   400c00 <puts@plt>
  401d3a:	b8 00 00 00 00       	mov    $0x0,%eax
  401d3f:	e8 7b fc ff ff       	call   4019bf <check_fail>
  401d44:	bf 40 32 40 00       	mov    $0x403240,%edi
  401d49:	e8 b2 ee ff ff       	call   400c00 <puts@plt>
  401d4e:	bf df 30 40 00       	mov    $0x4030df,%edi
  401d53:	e8 a8 ee ff ff       	call   400c00 <puts@plt>
  401d58:	be 00 00 00 00       	mov    $0x0,%esi
  401d5d:	bf 00 00 00 00       	mov    $0x0,%edi
  401d62:	e8 df fc ff ff       	call   401a46 <notify_server>
  401d67:	bf 01 00 00 00       	mov    $0x1,%edi
  401d6c:	e8 ef ef ff ff       	call   400d60 <exit@plt>

0000000000401d71 <seghandler>:
  401d71:	48 83 ec 08          	sub    $0x8,%rsp
  401d75:	83 3d 8c 27 20 00 00 	cmpl   $0x0,0x20278c(%rip)        # 604508 <is_checker>
  401d7c:	74 14                	je     401d92 <seghandler+0x21>
  401d7e:	bf f5 30 40 00       	mov    $0x4030f5,%edi
  401d83:	e8 78 ee ff ff       	call   400c00 <puts@plt>
  401d88:	b8 00 00 00 00       	mov    $0x0,%eax
  401d8d:	e8 2d fc ff ff       	call   4019bf <check_fail>
  401d92:	bf 60 32 40 00       	mov    $0x403260,%edi
  401d97:	e8 64 ee ff ff       	call   400c00 <puts@plt>
  401d9c:	bf df 30 40 00       	mov    $0x4030df,%edi
  401da1:	e8 5a ee ff ff       	call   400c00 <puts@plt>
  401da6:	be 00 00 00 00       	mov    $0x0,%esi
  401dab:	bf 00 00 00 00       	mov    $0x0,%edi
  401db0:	e8 91 fc ff ff       	call   401a46 <notify_server>
  401db5:	bf 01 00 00 00       	mov    $0x1,%edi
  401dba:	e8 a1 ef ff ff       	call   400d60 <exit@plt>

0000000000401dbf <illegalhandler>:
  401dbf:	48 83 ec 08          	sub    $0x8,%rsp
  401dc3:	83 3d 3e 27 20 00 00 	cmpl   $0x0,0x20273e(%rip)        # 604508 <is_checker>
  401dca:	74 14                	je     401de0 <illegalhandler+0x21>
  401dcc:	bf 08 31 40 00       	mov    $0x403108,%edi
  401dd1:	e8 2a ee ff ff       	call   400c00 <puts@plt>
  401dd6:	b8 00 00 00 00       	mov    $0x0,%eax
  401ddb:	e8 df fb ff ff       	call   4019bf <check_fail>
  401de0:	bf 88 32 40 00       	mov    $0x403288,%edi
  401de5:	e8 16 ee ff ff       	call   400c00 <puts@plt>
  401dea:	bf df 30 40 00       	mov    $0x4030df,%edi
  401def:	e8 0c ee ff ff       	call   400c00 <puts@plt>
  401df4:	be 00 00 00 00       	mov    $0x0,%esi
  401df9:	bf 00 00 00 00       	mov    $0x0,%edi
  401dfe:	e8 43 fc ff ff       	call   401a46 <notify_server>
  401e03:	bf 01 00 00 00       	mov    $0x1,%edi
  401e08:	e8 53 ef ff ff       	call   400d60 <exit@plt>

0000000000401e0d <sigalrmhandler>:
  401e0d:	48 83 ec 08          	sub    $0x8,%rsp
  401e11:	83 3d f0 26 20 00 00 	cmpl   $0x0,0x2026f0(%rip)        # 604508 <is_checker>
  401e18:	74 14                	je     401e2e <sigalrmhandler+0x21>
  401e1a:	bf 1c 31 40 00       	mov    $0x40311c,%edi
  401e1f:	e8 dc ed ff ff       	call   400c00 <puts@plt>
  401e24:	b8 00 00 00 00       	mov    $0x0,%eax
  401e29:	e8 91 fb ff ff       	call   4019bf <check_fail>
  401e2e:	ba 05 00 00 00       	mov    $0x5,%edx
  401e33:	be b8 32 40 00       	mov    $0x4032b8,%esi
  401e38:	bf 01 00 00 00       	mov    $0x1,%edi
  401e3d:	b8 00 00 00 00       	mov    $0x0,%eax
  401e42:	e8 d9 ee ff ff       	call   400d20 <__printf_chk@plt>
  401e47:	be 00 00 00 00       	mov    $0x0,%esi
  401e4c:	bf 00 00 00 00       	mov    $0x0,%edi
  401e51:	e8 f0 fb ff ff       	call   401a46 <notify_server>
  401e56:	bf 01 00 00 00       	mov    $0x1,%edi
  401e5b:	e8 00 ef ff ff       	call   400d60 <exit@plt>

0000000000401e60 <launch>:
  401e60:	55                   	push   %rbp
  401e61:	48 89 e5             	mov    %rsp,%rbp
  401e64:	48 83 ec 10          	sub    $0x10,%rsp
  401e68:	48 89 fa             	mov    %rdi,%rdx
  401e6b:	64 48 8b 04 25 28 00 	mov    %fs:0x28,%rax
  401e72:	00 00 
  401e74:	48 89 45 f8          	mov    %rax,-0x8(%rbp)
  401e78:	31 c0                	xor    %eax,%eax
  401e7a:	48 8d 47 1e          	lea    0x1e(%rdi),%rax
  401e7e:	48 83 e0 f0          	and    $0xfffffffffffffff0,%rax
  401e82:	48 29 c4             	sub    %rax,%rsp
  401e85:	48 8d 7c 24 0f       	lea    0xf(%rsp),%rdi
  401e8a:	48 83 e7 f0          	and    $0xfffffffffffffff0,%rdi
  401e8e:	be f4 00 00 00       	mov    $0xf4,%esi
  401e93:	e8 a8 ed ff ff       	call   400c40 <memset@plt>
  401e98:	48 8b 05 01 26 20 00 	mov    0x202601(%rip),%rax        # 6044a0 <stdin@GLIBC_2.2.5>
  401e9f:	48 39 05 4a 26 20 00 	cmp    %rax,0x20264a(%rip)        # 6044f0 <infile>
  401ea6:	75 14                	jne    401ebc <launch+0x5c>
  401ea8:	be 24 31 40 00       	mov    $0x403124,%esi
  401ead:	bf 01 00 00 00       	mov    $0x1,%edi
  401eb2:	b8 00 00 00 00       	mov    $0x0,%eax
  401eb7:	e8 64 ee ff ff       	call   400d20 <__printf_chk@plt>
  401ebc:	c7 05 36 26 20 00 00 	movl   $0x0,0x202636(%rip)        # 6044fc <vlevel>
  401ec3:	00 00 00 
  401ec6:	b8 00 00 00 00       	mov    $0x0,%eax
  401ecb:	e8 5b fa ff ff       	call   40192b <test>
  401ed0:	83 3d 31 26 20 00 00 	cmpl   $0x0,0x202631(%rip)        # 604508 <is_checker>
  401ed7:	74 14                	je     401eed <launch+0x8d>
  401ed9:	bf 31 31 40 00       	mov    $0x403131,%edi
  401ede:	e8 1d ed ff ff       	call   400c00 <puts@plt>
  401ee3:	b8 00 00 00 00       	mov    $0x0,%eax
  401ee8:	e8 d2 fa ff ff       	call   4019bf <check_fail>
  401eed:	bf 3c 31 40 00       	mov    $0x40313c,%edi
  401ef2:	e8 09 ed ff ff       	call   400c00 <puts@plt>
  401ef7:	48 8b 45 f8          	mov    -0x8(%rbp),%rax
  401efb:	64 48 33 04 25 28 00 	xor    %fs:0x28,%rax
  401f02:	00 00 
  401f04:	74 05                	je     401f0b <launch+0xab>
  401f06:	e8 15 ed ff ff       	call   400c20 <__stack_chk_fail@plt>
  401f0b:	c9                   	leave
  401f0c:	c3                   	ret

0000000000401f0d <stable_launch>:
  401f0d:	53                   	push   %rbx
  401f0e:	48 89 3d d3 25 20 00 	mov    %rdi,0x2025d3(%rip)        # 6044e8 <global_offset>
  401f15:	41 b9 00 00 00 00    	mov    $0x0,%r9d
  401f1b:	41 b8 00 00 00 00    	mov    $0x0,%r8d
  401f21:	b9 32 01 00 00       	mov    $0x132,%ecx
  401f26:	ba 07 00 00 00       	mov    $0x7,%edx
  401f2b:	be 00 00 10 00       	mov    $0x100000,%esi
  401f30:	bf 00 60 58 55       	mov    $0x55586000,%edi
  401f35:	e8 f6 ec ff ff       	call   400c30 <mmap@plt>
  401f3a:	48 89 c3             	mov    %rax,%rbx
  401f3d:	48 3d 00 60 58 55    	cmp    $0x55586000,%rax
  401f43:	74 37                	je     401f7c <stable_launch+0x6f>
  401f45:	be 00 00 10 00       	mov    $0x100000,%esi
  401f4a:	48 89 c7             	mov    %rax,%rdi
  401f4d:	e8 be ed ff ff       	call   400d10 <munmap@plt>
  401f52:	b9 00 60 58 55       	mov    $0x55586000,%ecx
  401f57:	ba f0 32 40 00       	mov    $0x4032f0,%edx
  401f5c:	be 01 00 00 00       	mov    $0x1,%esi
  401f61:	48 8b 3d 58 25 20 00 	mov    0x202558(%rip),%rdi        # 6044c0 <stderr@GLIBC_2.2.5>
  401f68:	b8 00 00 00 00       	mov    $0x0,%eax
  401f6d:	e8 0e ee ff ff       	call   400d80 <__fprintf_chk@plt>
  401f72:	bf 01 00 00 00       	mov    $0x1,%edi
  401f77:	e8 e4 ed ff ff       	call   400d60 <exit@plt>
  401f7c:	48 8d 90 f8 ff 0f 00 	lea    0xffff8(%rax),%rdx
  401f83:	48 89 15 a6 31 20 00 	mov    %rdx,0x2031a6(%rip)        # 605130 <stack_top>
  401f8a:	48 89 e0             	mov    %rsp,%rax
  401f8d:	48 89 d4             	mov    %rdx,%rsp
  401f90:	48 89 c2             	mov    %rax,%rdx
  401f93:	48 89 15 46 25 20 00 	mov    %rdx,0x202546(%rip)        # 6044e0 <global_save_stack>
  401f9a:	48 8b 3d 47 25 20 00 	mov    0x202547(%rip),%rdi        # 6044e8 <global_offset>
  401fa1:	e8 ba fe ff ff       	call   401e60 <launch>
  401fa6:	48 8b 05 33 25 20 00 	mov    0x202533(%rip),%rax        # 6044e0 <global_save_stack>
  401fad:	48 89 c4             	mov    %rax,%rsp
  401fb0:	be 00 00 10 00       	mov    $0x100000,%esi
  401fb5:	48 89 df             	mov    %rbx,%rdi
  401fb8:	e8 53 ed ff ff       	call   400d10 <munmap@plt>
  401fbd:	5b                   	pop    %rbx
  401fbe:	c3                   	ret

0000000000401fbf <rio_readinitb>:
  401fbf:	89 37                	mov    %esi,(%rdi)
  401fc1:	c7 47 04 00 00 00 00 	movl   $0x0,0x4(%rdi)
  401fc8:	48 8d 47 10          	lea    0x10(%rdi),%rax
  401fcc:	48 89 47 08          	mov    %rax,0x8(%rdi)
  401fd0:	c3                   	ret

0000000000401fd1 <sigalrm_handler>:
  401fd1:	48 83 ec 08          	sub    $0x8,%rsp
  401fd5:	b9 00 00 00 00       	mov    $0x0,%ecx
  401fda:	ba 30 33 40 00       	mov    $0x403330,%edx
  401fdf:	be 01 00 00 00       	mov    $0x1,%esi
  401fe4:	48 8b 3d d5 24 20 00 	mov    0x2024d5(%rip),%rdi        # 6044c0 <stderr@GLIBC_2.2.5>
  401feb:	b8 00 00 00 00       	mov    $0x0,%eax
  401ff0:	e8 8b ed ff ff       	call   400d80 <__fprintf_chk@plt>
  401ff5:	bf 01 00 00 00       	mov    $0x1,%edi
  401ffa:	e8 61 ed ff ff       	call   400d60 <exit@plt>

0000000000401fff <rio_writen>:
  401fff:	41 55                	push   %r13
  402001:	41 54                	push   %r12
  402003:	55                   	push   %rbp
  402004:	53                   	push   %rbx
  402005:	48 83 ec 08          	sub    $0x8,%rsp
  402009:	41 89 fc             	mov    %edi,%r12d
  40200c:	48 89 f5             	mov    %rsi,%rbp
  40200f:	49 89 d5             	mov    %rdx,%r13
  402012:	48 89 d3             	mov    %rdx,%rbx
  402015:	eb 28                	jmp    40203f <rio_writen+0x40>
  402017:	48 89 da             	mov    %rbx,%rdx
  40201a:	48 89 ee             	mov    %rbp,%rsi
  40201d:	44 89 e7             	mov    %r12d,%edi
  402020:	e8 eb eb ff ff       	call   400c10 <write@plt>
  402025:	48 85 c0             	test   %rax,%rax
  402028:	7f 0f                	jg     402039 <rio_writen+0x3a>
  40202a:	e8 91 eb ff ff       	call   400bc0 <__errno_location@plt>
  40202f:	83 38 04             	cmpl   $0x4,(%rax)
  402032:	75 15                	jne    402049 <rio_writen+0x4a>
  402034:	b8 00 00 00 00       	mov    $0x0,%eax
  402039:	48 29 c3             	sub    %rax,%rbx
  40203c:	48 01 c5             	add    %rax,%rbp
  40203f:	48 85 db             	test   %rbx,%rbx
  402042:	75 d3                	jne    402017 <rio_writen+0x18>
  402044:	4c 89 e8             	mov    %r13,%rax
  402047:	eb 07                	jmp    402050 <rio_writen+0x51>
  402049:	48 c7 c0 ff ff ff ff 	mov    $0xffffffffffffffff,%rax
  402050:	48 83 c4 08          	add    $0x8,%rsp
  402054:	5b                   	pop    %rbx
  402055:	5d                   	pop    %rbp
  402056:	41 5c                	pop    %r12
  402058:	41 5d                	pop    %r13
  40205a:	c3                   	ret

000000000040205b <rio_read>:
  40205b:	41 55                	push   %r13
  40205d:	41 54                	push   %r12
  40205f:	55                   	push   %rbp
  402060:	53                   	push   %rbx
  402061:	48 83 ec 08          	sub    $0x8,%rsp
  402065:	48 89 fb             	mov    %rdi,%rbx
  402068:	49 89 f5             	mov    %rsi,%r13
  40206b:	49 89 d4             	mov    %rdx,%r12
  40206e:	eb 2e                	jmp    40209e <rio_read+0x43>
  402070:	48 8d 6b 10          	lea    0x10(%rbx),%rbp
  402074:	8b 3b                	mov    (%rbx),%edi
  402076:	ba 00 20 00 00       	mov    $0x2000,%edx
  40207b:	48 89 ee             	mov    %rbp,%rsi
  40207e:	e8 ed eb ff ff       	call   400c70 <read@plt>
  402083:	89 43 04             	mov    %eax,0x4(%rbx)
  402086:	85 c0                	test   %eax,%eax
  402088:	79 0c                	jns    402096 <rio_read+0x3b>
  40208a:	e8 31 eb ff ff       	call   400bc0 <__errno_location@plt>
  40208f:	83 38 04             	cmpl   $0x4,(%rax)
  402092:	74 0a                	je     40209e <rio_read+0x43>
  402094:	eb 37                	jmp    4020cd <rio_read+0x72>
  402096:	85 c0                	test   %eax,%eax
  402098:	74 3c                	je     4020d6 <rio_read+0x7b>
  40209a:	48 89 6b 08          	mov    %rbp,0x8(%rbx)
  40209e:	8b 6b 04             	mov    0x4(%rbx),%ebp
  4020a1:	85 ed                	test   %ebp,%ebp
  4020a3:	7e cb                	jle    402070 <rio_read+0x15>
  4020a5:	89 e8                	mov    %ebp,%eax
  4020a7:	49 39 c4             	cmp    %rax,%r12
  4020aa:	77 03                	ja     4020af <rio_read+0x54>
  4020ac:	44 89 e5             	mov    %r12d,%ebp
  4020af:	4c 63 e5             	movslq %ebp,%r12
  4020b2:	48 8b 73 08          	mov    0x8(%rbx),%rsi
  4020b6:	4c 89 e2             	mov    %r12,%rdx
  4020b9:	4c 89 ef             	mov    %r13,%rdi
  4020bc:	e8 ff eb ff ff       	call   400cc0 <memcpy@plt>
  4020c1:	4c 01 63 08          	add    %r12,0x8(%rbx)
  4020c5:	29 6b 04             	sub    %ebp,0x4(%rbx)
  4020c8:	4c 89 e0             	mov    %r12,%rax
  4020cb:	eb 0e                	jmp    4020db <rio_read+0x80>
  4020cd:	48 c7 c0 ff ff ff ff 	mov    $0xffffffffffffffff,%rax
  4020d4:	eb 05                	jmp    4020db <rio_read+0x80>
  4020d6:	b8 00 00 00 00       	mov    $0x0,%eax
  4020db:	48 83 c4 08          	add    $0x8,%rsp
  4020df:	5b                   	pop    %rbx
  4020e0:	5d                   	pop    %rbp
  4020e1:	41 5c                	pop    %r12
  4020e3:	41 5d                	pop    %r13
  4020e5:	c3                   	ret

00000000004020e6 <rio_readlineb>:
  4020e6:	41 55                	push   %r13
  4020e8:	41 54                	push   %r12
  4020ea:	55                   	push   %rbp
  4020eb:	53                   	push   %rbx
  4020ec:	48 83 ec 18          	sub    $0x18,%rsp
  4020f0:	49 89 fd             	mov    %rdi,%r13
  4020f3:	48 89 f5             	mov    %rsi,%rbp
  4020f6:	49 89 d4             	mov    %rdx,%r12
  4020f9:	64 48 8b 04 25 28 00 	mov    %fs:0x28,%rax
  402100:	00 00 
  402102:	48 89 44 24 08       	mov    %rax,0x8(%rsp)
  402107:	31 c0                	xor    %eax,%eax
  402109:	bb 01 00 00 00       	mov    $0x1,%ebx
  40210e:	eb 3f                	jmp    40214f <rio_readlineb+0x69>
  402110:	ba 01 00 00 00       	mov    $0x1,%edx
  402115:	48 8d 74 24 07       	lea    0x7(%rsp),%rsi
  40211a:	4c 89 ef             	mov    %r13,%rdi
  40211d:	e8 39 ff ff ff       	call   40205b <rio_read>
  402122:	83 f8 01             	cmp    $0x1,%eax
  402125:	75 15                	jne    40213c <rio_readlineb+0x56>
  402127:	48 8d 45 01          	lea    0x1(%rbp),%rax
  40212b:	0f b6 54 24 07       	movzbl 0x7(%rsp),%edx
  402130:	88 55 00             	mov    %dl,0x0(%rbp)
  402133:	80 7c 24 07 0a       	cmpb   $0xa,0x7(%rsp)
  402138:	75 0e                	jne    402148 <rio_readlineb+0x62>
  40213a:	eb 1a                	jmp    402156 <rio_readlineb+0x70>
  40213c:	85 c0                	test   %eax,%eax
  40213e:	75 22                	jne    402162 <rio_readlineb+0x7c>
  402140:	48 83 fb 01          	cmp    $0x1,%rbx
  402144:	75 13                	jne    402159 <rio_readlineb+0x73>
  402146:	eb 23                	jmp    40216b <rio_readlineb+0x85>
  402148:	48 83 c3 01          	add    $0x1,%rbx
  40214c:	48 89 c5             	mov    %rax,%rbp
  40214f:	4c 39 e3             	cmp    %r12,%rbx
  402152:	72 bc                	jb     402110 <rio_readlineb+0x2a>
  402154:	eb 03                	jmp    402159 <rio_readlineb+0x73>
  402156:	48 89 c5             	mov    %rax,%rbp
  402159:	c6 45 00 00          	movb   $0x0,0x0(%rbp)
  40215d:	48 89 d8             	mov    %rbx,%rax
  402160:	eb 0e                	jmp    402170 <rio_readlineb+0x8a>
  402162:	48 c7 c0 ff ff ff ff 	mov    $0xffffffffffffffff,%rax
  402169:	eb 05                	jmp    402170 <rio_readlineb+0x8a>
  40216b:	b8 00 00 00 00       	mov    $0x0,%eax
  402170:	48 8b 4c 24 08       	mov    0x8(%rsp),%rcx
  402175:	64 48 33 0c 25 28 00 	xor    %fs:0x28,%rcx
  40217c:	00 00 
  40217e:	74 05                	je     402185 <rio_readlineb+0x9f>
  402180:	e8 9b ea ff ff       	call   400c20 <__stack_chk_fail@plt>
  402185:	48 83 c4 18          	add    $0x18,%rsp
  402189:	5b                   	pop    %rbx
  40218a:	5d                   	pop    %rbp
  40218b:	41 5c                	pop    %r12
  40218d:	41 5d                	pop    %r13
  40218f:	c3                   	ret

0000000000402190 <urlencode>:
  402190:	41 54                	push   %r12
  402192:	55                   	push   %rbp
  402193:	53                   	push   %rbx
  402194:	48 83 ec 10          	sub    $0x10,%rsp
  402198:	48 89 fb             	mov    %rdi,%rbx
  40219b:	48 89 f5             	mov    %rsi,%rbp
  40219e:	64 48 8b 04 25 28 00 	mov    %fs:0x28,%rax
  4021a5:	00 00 
  4021a7:	48 89 44 24 08       	mov    %rax,0x8(%rsp)
  4021ac:	31 c0                	xor    %eax,%eax
  4021ae:	48 c7 c1 ff ff ff ff 	mov    $0xffffffffffffffff,%rcx
  4021b5:	f2 ae                	repnz scas %es:(%rdi),%al
  4021b7:	48 f7 d1             	not    %rcx
  4021ba:	8d 41 ff             	lea    -0x1(%rcx),%eax
  4021bd:	e9 aa 00 00 00       	jmp    40226c <urlencode+0xdc>
  4021c2:	44 0f b6 03          	movzbl (%rbx),%r8d
  4021c6:	41 80 f8 2a          	cmp    $0x2a,%r8b
  4021ca:	0f 94 c2             	sete   %dl
  4021cd:	41 80 f8 2d          	cmp    $0x2d,%r8b
  4021d1:	0f 94 c0             	sete   %al
  4021d4:	08 c2                	or     %al,%dl
  4021d6:	75 24                	jne    4021fc <urlencode+0x6c>
  4021d8:	41 80 f8 2e          	cmp    $0x2e,%r8b
  4021dc:	74 1e                	je     4021fc <urlencode+0x6c>
  4021de:	41 80 f8 5f          	cmp    $0x5f,%r8b
  4021e2:	74 18                	je     4021fc <urlencode+0x6c>
  4021e4:	41 8d 40 d0          	lea    -0x30(%r8),%eax
  4021e8:	3c 09                	cmp    $0x9,%al
  4021ea:	76 10                	jbe    4021fc <urlencode+0x6c>
  4021ec:	41 8d 40 bf          	lea    -0x41(%r8),%eax
  4021f0:	3c 19                	cmp    $0x19,%al
  4021f2:	76 08                	jbe    4021fc <urlencode+0x6c>
  4021f4:	41 8d 40 9f          	lea    -0x61(%r8),%eax
  4021f8:	3c 19                	cmp    $0x19,%al
  4021fa:	77 0a                	ja     402206 <urlencode+0x76>
  4021fc:	44 88 45 00          	mov    %r8b,0x0(%rbp)
  402200:	48 8d 6d 01          	lea    0x1(%rbp),%rbp
  402204:	eb 5f                	jmp    402265 <urlencode+0xd5>
  402206:	41 80 f8 20          	cmp    $0x20,%r8b
  40220a:	75 0a                	jne    402216 <urlencode+0x86>
  40220c:	c6 45 00 2b          	movb   $0x2b,0x0(%rbp)
  402210:	48 8d 6d 01          	lea    0x1(%rbp),%rbp
  402214:	eb 4f                	jmp    402265 <urlencode+0xd5>
  402216:	41 8d 40 e0          	lea    -0x20(%r8),%eax
  40221a:	3c 5f                	cmp    $0x5f,%al
  40221c:	0f 96 c2             	setbe  %dl
  40221f:	41 80 f8 09          	cmp    $0x9,%r8b
  402223:	0f 94 c0             	sete   %al
  402226:	08 c2                	or     %al,%dl
  402228:	74 50                	je     40227a <urlencode+0xea>
  40222a:	45 0f b6 c0          	movzbl %r8b,%r8d
  40222e:	b9 c8 33 40 00       	mov    $0x4033c8,%ecx
  402233:	ba 08 00 00 00       	mov    $0x8,%edx
  402238:	be 01 00 00 00       	mov    $0x1,%esi
  40223d:	48 89 e7             	mov    %rsp,%rdi
  402240:	b8 00 00 00 00       	mov    $0x0,%eax
  402245:	e8 46 eb ff ff       	call   400d90 <__sprintf_chk@plt>
  40224a:	0f b6 04 24          	movzbl (%rsp),%eax
  40224e:	88 45 00             	mov    %al,0x0(%rbp)
  402251:	0f b6 44 24 01       	movzbl 0x1(%rsp),%eax
  402256:	88 45 01             	mov    %al,0x1(%rbp)
  402259:	0f b6 44 24 02       	movzbl 0x2(%rsp),%eax
  40225e:	88 45 02             	mov    %al,0x2(%rbp)
  402261:	48 8d 6d 03          	lea    0x3(%rbp),%rbp
  402265:	48 83 c3 01          	add    $0x1,%rbx
  402269:	44 89 e0             	mov    %r12d,%eax
  40226c:	44 8d 60 ff          	lea    -0x1(%rax),%r12d
  402270:	85 c0                	test   %eax,%eax
  402272:	0f 85 4a ff ff ff    	jne    4021c2 <urlencode+0x32>
  402278:	eb 05                	jmp    40227f <urlencode+0xef>
  40227a:	b8 ff ff ff ff       	mov    $0xffffffff,%eax
  40227f:	48 8b 74 24 08       	mov    0x8(%rsp),%rsi
  402284:	64 48 33 34 25 28 00 	xor    %fs:0x28,%rsi
  40228b:	00 00 
  40228d:	74 05                	je     402294 <urlencode+0x104>
  40228f:	e8 8c e9 ff ff       	call   400c20 <__stack_chk_fail@plt>
  402294:	48 83 c4 10          	add    $0x10,%rsp
  402298:	5b                   	pop    %rbx
  402299:	5d                   	pop    %rbp
  40229a:	41 5c                	pop    %r12
  40229c:	c3                   	ret

000000000040229d <submitr>:
  40229d:	41 57                	push   %r15
  40229f:	41 56                	push   %r14
  4022a1:	41 55                	push   %r13
  4022a3:	41 54                	push   %r12
  4022a5:	55                   	push   %rbp
  4022a6:	53                   	push   %rbx
  4022a7:	48 81 ec 58 a0 00 00 	sub    $0xa058,%rsp
  4022ae:	49 89 ff             	mov    %rdi,%r15
  4022b1:	89 74 24 04          	mov    %esi,0x4(%rsp)
  4022b5:	49 89 d6             	mov    %rdx,%r14
  4022b8:	49 89 cd             	mov    %rcx,%r13
  4022bb:	4c 89 44 24 08       	mov    %r8,0x8(%rsp)
  4022c0:	4d 89 cc             	mov    %r9,%r12
  4022c3:	48 8b 9c 24 90 a0 00 	mov    0xa090(%rsp),%rbx
  4022ca:	00 
  4022cb:	64 48 8b 04 25 28 00 	mov    %fs:0x28,%rax
  4022d2:	00 00 
  4022d4:	48 89 84 24 48 a0 00 	mov    %rax,0xa048(%rsp)
  4022db:	00 
  4022dc:	31 c0                	xor    %eax,%eax
  4022de:	c7 44 24 1c 00 00 00 	movl   $0x0,0x1c(%rsp)
  4022e5:	00 
  4022e6:	ba 00 00 00 00       	mov    $0x0,%edx
  4022eb:	be 01 00 00 00       	mov    $0x1,%esi
  4022f0:	bf 02 00 00 00       	mov    $0x2,%edi
  4022f5:	e8 a6 ea ff ff       	call   400da0 <socket@plt>
  4022fa:	85 c0                	test   %eax,%eax
  4022fc:	79 4e                	jns    40234c <submitr+0xaf>
  4022fe:	48 b8 45 72 72 6f 72 	movabs $0x43203a726f727245,%rax
  402305:	3a 20 43 
  402308:	48 89 03             	mov    %rax,(%rbx)
  40230b:	48 b8 6c 69 65 6e 74 	movabs $0x6e7520746e65696c,%rax
  402312:	20 75 6e 
  402315:	48 89 43 08          	mov    %rax,0x8(%rbx)
  402319:	48 b8 61 62 6c 65 20 	movabs $0x206f7420656c6261,%rax
  402320:	74 6f 20 
  402323:	48 89 43 10          	mov    %rax,0x10(%rbx)
  402327:	48 b8 63 72 65 61 74 	movabs $0x7320657461657263,%rax
  40232e:	65 20 73 
  402331:	48 89 43 18          	mov    %rax,0x18(%rbx)
  402335:	c7 43 20 6f 63 6b 65 	movl   $0x656b636f,0x20(%rbx)
  40233c:	66 c7 43 24 74 00    	movw   $0x74,0x24(%rbx)
  402342:	b8 ff ff ff ff       	mov    $0xffffffff,%eax
  402347:	e9 0a 06 00 00       	jmp    402956 <submitr+0x6b9>
  40234c:	89 c5                	mov    %eax,%ebp
  40234e:	66 c7 44 24 20 02 00 	movw   $0x2,0x20(%rsp)
  402355:	bf 27 2f 40 00       	mov    $0x402f27,%edi
  40235a:	b8 00 00 00 00       	mov    $0x0,%eax
  40235f:	e8 2c e9 ff ff       	call   400c90 <inet_addr@plt>
  402364:	89 44 24 24          	mov    %eax,0x24(%rsp)
  402368:	0f b7 44 24 04       	movzwl 0x4(%rsp),%eax
  40236d:	66 c1 c8 08          	ror    $0x8,%ax
  402371:	66 89 44 24 22       	mov    %ax,0x22(%rsp)
  402376:	ba 10 00 00 00       	mov    $0x10,%edx
  40237b:	48 8d 74 24 20       	lea    0x20(%rsp),%rsi
  402380:	89 ef                	mov    %ebp,%edi
  402382:	e8 e9 e9 ff ff       	call   400d70 <connect@plt>
  402387:	85 c0                	test   %eax,%eax
  402389:	79 59                	jns    4023e4 <submitr+0x147>
  40238b:	48 b8 45 72 72 6f 72 	movabs $0x55203a726f727245,%rax
  402392:	3a 20 55 
  402395:	48 89 03             	mov    %rax,(%rbx)
  402398:	48 b8 6e 61 62 6c 65 	movabs $0x6f7420656c62616e,%rax
  40239f:	20 74 6f 
  4023a2:	48 89 43 08          	mov    %rax,0x8(%rbx)
  4023a6:	48 b8 20 63 6f 6e 6e 	movabs $0x7463656e6e6f6320,%rax
  4023ad:	65 63 74 
  4023b0:	48 89 43 10          	mov    %rax,0x10(%rbx)
  4023b4:	48 b8 20 74 6f 20 74 	movabs $0x20656874206f7420,%rax
  4023bb:	68 65 20 
  4023be:	48 89 43 18          	mov    %rax,0x18(%rbx)
  4023c2:	c7 43 20 73 65 72 76 	movl   $0x76726573,0x20(%rbx)
  4023c9:	66 c7 43 24 65 72    	movw   $0x7265,0x24(%rbx)
  4023cf:	c6 43 26 00          	movb   $0x0,0x26(%rbx)
  4023d3:	89 ef                	mov    %ebp,%edi
  4023d5:	e8 86 e8 ff ff       	call   400c60 <close@plt>
  4023da:	b8 ff ff ff ff       	mov    $0xffffffff,%eax
  4023df:	e9 72 05 00 00       	jmp    402956 <submitr+0x6b9>
  4023e4:	48 c7 c6 ff ff ff ff 	mov    $0xffffffffffffffff,%rsi
  4023eb:	b8 00 00 00 00       	mov    $0x0,%eax
  4023f0:	48 89 f1             	mov    %rsi,%rcx
  4023f3:	4c 89 e7             	mov    %r12,%rdi
  4023f6:	f2 ae                	repnz scas %es:(%rdi),%al
  4023f8:	48 f7 d1             	not    %rcx
  4023fb:	48 89 ca             	mov    %rcx,%rdx
  4023fe:	48 89 f1             	mov    %rsi,%rcx
  402401:	4c 89 f7             	mov    %r14,%rdi
  402404:	f2 ae                	repnz scas %es:(%rdi),%al
  402406:	48 f7 d1             	not    %rcx
  402409:	49 89 c8             	mov    %rcx,%r8
  40240c:	48 89 f1             	mov    %rsi,%rcx
  40240f:	4c 89 ef             	mov    %r13,%rdi
  402412:	f2 ae                	repnz scas %es:(%rdi),%al
  402414:	48 f7 d1             	not    %rcx
  402417:	4d 8d 44 08 fe       	lea    -0x2(%r8,%rcx,1),%r8
  40241c:	48 89 f1             	mov    %rsi,%rcx
  40241f:	48 8b 7c 24 08       	mov    0x8(%rsp),%rdi
  402424:	f2 ae                	repnz scas %es:(%rdi),%al
  402426:	48 89 c8             	mov    %rcx,%rax
  402429:	48 f7 d0             	not    %rax
  40242c:	49 8d 4c 00 ff       	lea    -0x1(%r8,%rax,1),%rcx
  402431:	48 8d 44 52 fd       	lea    -0x3(%rdx,%rdx,2),%rax
  402436:	48 8d 84 01 80 00 00 	lea    0x80(%rcx,%rax,1),%rax
  40243d:	00 
  40243e:	48 3d 00 20 00 00    	cmp    $0x2000,%rax
  402444:	76 72                	jbe    4024b8 <submitr+0x21b>
  402446:	48 b8 45 72 72 6f 72 	movabs $0x52203a726f727245,%rax
  40244d:	3a 20 52 
  402450:	48 89 03             	mov    %rax,(%rbx)
  402453:	48 b8 65 73 75 6c 74 	movabs $0x747320746c757365,%rax
  40245a:	20 73 74 
  40245d:	48 89 43 08          	mov    %rax,0x8(%rbx)
  402461:	48 b8 72 69 6e 67 20 	movabs $0x6f6f7420676e6972,%rax
  402468:	74 6f 6f 
  40246b:	48 89 43 10          	mov    %rax,0x10(%rbx)
  40246f:	48 b8 20 6c 61 72 67 	movabs $0x202e656772616c20,%rax
  402476:	65 2e 20 
  402479:	48 89 43 18          	mov    %rax,0x18(%rbx)
  40247d:	48 b8 49 6e 63 72 65 	movabs $0x6573616572636e49,%rax
  402484:	61 73 65 
  402487:	48 89 43 20          	mov    %rax,0x20(%rbx)
  40248b:	48 b8 20 53 55 42 4d 	movabs $0x5254494d42555320,%rax
  402492:	49 54 52 
  402495:	48 89 43 28          	mov    %rax,0x28(%rbx)
  402499:	48 b8 5f 4d 41 58 42 	movabs $0x46554258414d5f,%rax
  4024a0:	55 46 00 
  4024a3:	48 89 43 30          	mov    %rax,0x30(%rbx)
  4024a7:	89 ef                	mov    %ebp,%edi
  4024a9:	e8 b2 e7 ff ff       	call   400c60 <close@plt>
  4024ae:	b8 ff ff ff ff       	mov    $0xffffffff,%eax
  4024b3:	e9 9e 04 00 00       	jmp    402956 <submitr+0x6b9>
  4024b8:	48 8d b4 24 40 40 00 	lea    0x4040(%rsp),%rsi
  4024bf:	00 
  4024c0:	b9 00 04 00 00       	mov    $0x400,%ecx
  4024c5:	b8 00 00 00 00       	mov    $0x0,%eax
  4024ca:	48 89 f7             	mov    %rsi,%rdi
  4024cd:	f3 48 ab             	rep stos %rax,%es:(%rdi)
  4024d0:	4c 89 e7             	mov    %r12,%rdi
  4024d3:	e8 b8 fc ff ff       	call   402190 <urlencode>
  4024d8:	85 c0                	test   %eax,%eax
  4024da:	0f 89 8a 00 00 00    	jns    40256a <submitr+0x2cd>
  4024e0:	48 b8 45 72 72 6f 72 	movabs $0x52203a726f727245,%rax
  4024e7:	3a 20 52 
  4024ea:	48 89 03             	mov    %rax,(%rbx)
  4024ed:	48 b8 65 73 75 6c 74 	movabs $0x747320746c757365,%rax
  4024f4:	20 73 74 
  4024f7:	48 89 43 08          	mov    %rax,0x8(%rbx)
  4024fb:	48 b8 72 69 6e 67 20 	movabs $0x6e6f6320676e6972,%rax
  402502:	63 6f 6e 
  402505:	48 89 43 10          	mov    %rax,0x10(%rbx)
  402509:	48 b8 74 61 69 6e 73 	movabs $0x6e6120736e696174,%rax
  402510:	20 61 6e 
  402513:	48 89 43 18          	mov    %rax,0x18(%rbx)
  402517:	48 b8 20 69 6c 6c 65 	movabs $0x6c6167656c6c6920,%rax
  40251e:	67 61 6c 
  402521:	48 89 43 20          	mov    %rax,0x20(%rbx)
  402525:	48 b8 20 6f 72 20 75 	movabs $0x72706e7520726f20,%rax
  40252c:	6e 70 72 
  40252f:	48 89 43 28          	mov    %rax,0x28(%rbx)
  402533:	48 b8 69 6e 74 61 62 	movabs $0x20656c6261746e69,%rax
  40253a:	6c 65 20 
  40253d:	48 89 43 30          	mov    %rax,0x30(%rbx)
  402541:	48 b8 63 68 61 72 61 	movabs $0x6574636172616863,%rax
  402548:	63 74 65 
  40254b:	48 89 43 38          	mov    %rax,0x38(%rbx)
  40254f:	66 c7 43 40 72 2e    	movw   $0x2e72,0x40(%rbx)
  402555:	c6 43 42 00          	movb   $0x0,0x42(%rbx)
  402559:	89 ef                	mov    %ebp,%edi
  40255b:	e8 00 e7 ff ff       	call   400c60 <close@plt>
  402560:	b8 ff ff ff ff       	mov    $0xffffffff,%eax
  402565:	e9 ec 03 00 00       	jmp    402956 <submitr+0x6b9>
  40256a:	4c 8d a4 24 40 20 00 	lea    0x2040(%rsp),%r12
  402571:	00 
  402572:	41 57                	push   %r15
  402574:	48 8d 84 24 48 40 00 	lea    0x4048(%rsp),%rax
  40257b:	00 
  40257c:	50                   	push   %rax
  40257d:	4d 89 f1             	mov    %r14,%r9
  402580:	4d 89 e8             	mov    %r13,%r8
  402583:	b9 58 33 40 00       	mov    $0x403358,%ecx
  402588:	ba 00 20 00 00       	mov    $0x2000,%edx
  40258d:	be 01 00 00 00       	mov    $0x1,%esi
  402592:	4c 89 e7             	mov    %r12,%rdi
  402595:	b8 00 00 00 00       	mov    $0x0,%eax
  40259a:	e8 f1 e7 ff ff       	call   400d90 <__sprintf_chk@plt>
  40259f:	b8 00 00 00 00       	mov    $0x0,%eax
  4025a4:	48 c7 c1 ff ff ff ff 	mov    $0xffffffffffffffff,%rcx
  4025ab:	4c 89 e7             	mov    %r12,%rdi
  4025ae:	f2 ae                	repnz scas %es:(%rdi),%al
  4025b0:	48 f7 d1             	not    %rcx
  4025b3:	48 8d 51 ff          	lea    -0x1(%rcx),%rdx
  4025b7:	4c 89 e6             	mov    %r12,%rsi
  4025ba:	89 ef                	mov    %ebp,%edi
  4025bc:	e8 3e fa ff ff       	call   401fff <rio_writen>
  4025c1:	48 83 c4 10          	add    $0x10,%rsp
  4025c5:	48 85 c0             	test   %rax,%rax
  4025c8:	79 6e                	jns    402638 <submitr+0x39b>
  4025ca:	48 b8 45 72 72 6f 72 	movabs $0x43203a726f727245,%rax
  4025d1:	3a 20 43 
  4025d4:	48 89 03             	mov    %rax,(%rbx)
  4025d7:	48 b8 6c 69 65 6e 74 	movabs $0x6e7520746e65696c,%rax
  4025de:	20 75 6e 
  4025e1:	48 89 43 08          	mov    %rax,0x8(%rbx)
  4025e5:	48 b8 61 62 6c 65 20 	movabs $0x206f7420656c6261,%rax
  4025ec:	74 6f 20 
  4025ef:	48 89 43 10          	mov    %rax,0x10(%rbx)
  4025f3:	48 b8 77 72 69 74 65 	movabs $0x6f74206574697277,%rax
  4025fa:	20 74 6f 
  4025fd:	48 89 43 18          	mov    %rax,0x18(%rbx)
  402601:	48 b8 20 74 68 65 20 	movabs $0x7365722065687420,%rax
  402608:	72 65 73 
  40260b:	48 89 43 20          	mov    %rax,0x20(%rbx)
  40260f:	48 b8 75 6c 74 20 73 	movabs $0x7672657320746c75,%rax
  402616:	65 72 76 
  402619:	48 89 43 28          	mov    %rax,0x28(%rbx)
  40261d:	66 c7 43 30 65 72    	movw   $0x7265,0x30(%rbx)
  402623:	c6 43 32 00          	movb   $0x0,0x32(%rbx)
  402627:	89 ef                	mov    %ebp,%edi
  402629:	e8 32 e6 ff ff       	call   400c60 <close@plt>
  40262e:	b8 ff ff ff ff       	mov    $0xffffffff,%eax
  402633:	e9 1e 03 00 00       	jmp    402956 <submitr+0x6b9>
  402638:	89 ee                	mov    %ebp,%esi
  40263a:	48 8d 7c 24 30       	lea    0x30(%rsp),%rdi
  40263f:	e8 7b f9 ff ff       	call   401fbf <rio_readinitb>
  402644:	ba 00 20 00 00       	mov    $0x2000,%edx
  402649:	48 8d b4 24 40 20 00 	lea    0x2040(%rsp),%rsi
  402650:	00 
  402651:	48 8d 7c 24 30       	lea    0x30(%rsp),%rdi
  402656:	e8 8b fa ff ff       	call   4020e6 <rio_readlineb>
  40265b:	48 85 c0             	test   %rax,%rax
  40265e:	7f 7d                	jg     4026dd <submitr+0x440>
  402660:	48 b8 45 72 72 6f 72 	movabs $0x43203a726f727245,%rax
  402667:	3a 20 43 
  40266a:	48 89 03             	mov    %rax,(%rbx)
  40266d:	48 b8 6c 69 65 6e 74 	movabs $0x6e7520746e65696c,%rax
  402674:	20 75 6e 
  402677:	48 89 43 08          	mov    %rax,0x8(%rbx)
  40267b:	48 b8 61 62 6c 65 20 	movabs $0x206f7420656c6261,%rax
  402682:	74 6f 20 
  402685:	48 89 43 10          	mov    %rax,0x10(%rbx)
  402689:	48 b8 72 65 61 64 20 	movabs $0x7269662064616572,%rax
  402690:	66 69 72 
  402693:	48 89 43 18          	mov    %rax,0x18(%rbx)
  402697:	48 b8 73 74 20 68 65 	movabs $0x6564616568207473,%rax
  40269e:	61 64 65 
  4026a1:	48 89 43 20          	mov    %rax,0x20(%rbx)
  4026a5:	48 b8 72 20 66 72 6f 	movabs $0x72206d6f72662072,%rax
  4026ac:	6d 20 72 
  4026af:	48 89 43 28          	mov    %rax,0x28(%rbx)
  4026b3:	48 b8 65 73 75 6c 74 	movabs $0x657320746c757365,%rax
  4026ba:	20 73 65 
  4026bd:	48 89 43 30          	mov    %rax,0x30(%rbx)
  4026c1:	c7 43 38 72 76 65 72 	movl   $0x72657672,0x38(%rbx)
  4026c8:	c6 43 3c 00          	movb   $0x0,0x3c(%rbx)
  4026cc:	89 ef                	mov    %ebp,%edi
  4026ce:	e8 8d e5 ff ff       	call   400c60 <close@plt>
  4026d3:	b8 ff ff ff ff       	mov    $0xffffffff,%eax
  4026d8:	e9 79 02 00 00       	jmp    402956 <submitr+0x6b9>
  4026dd:	4c 8d 84 24 40 80 00 	lea    0x8040(%rsp),%r8
  4026e4:	00 
  4026e5:	48 8d 4c 24 1c       	lea    0x1c(%rsp),%rcx
  4026ea:	48 8d 94 24 40 60 00 	lea    0x6040(%rsp),%rdx
  4026f1:	00 
  4026f2:	be cf 33 40 00       	mov    $0x4033cf,%esi
  4026f7:	48 8d bc 24 40 20 00 	lea    0x2040(%rsp),%rdi
  4026fe:	00 
  4026ff:	b8 00 00 00 00       	mov    $0x0,%eax
  402704:	e8 f7 e5 ff ff       	call   400d00 <__isoc99_sscanf@plt>
  402709:	e9 95 00 00 00       	jmp    4027a3 <submitr+0x506>
  40270e:	ba 00 20 00 00       	mov    $0x2000,%edx
  402713:	48 8d b4 24 40 20 00 	lea    0x2040(%rsp),%rsi
  40271a:	00 
  40271b:	48 8d 7c 24 30       	lea    0x30(%rsp),%rdi
  402720:	e8 c1 f9 ff ff       	call   4020e6 <rio_readlineb>
  402725:	48 85 c0             	test   %rax,%rax
  402728:	7f 79                	jg     4027a3 <submitr+0x506>
  40272a:	48 b8 45 72 72 6f 72 	movabs $0x43203a726f727245,%rax
  402731:	3a 20 43 
  402734:	48 89 03             	mov    %rax,(%rbx)
  402737:	48 b8 6c 69 65 6e 74 	movabs $0x6e7520746e65696c,%rax
  40273e:	20 75 6e 
  402741:	48 89 43 08          	mov    %rax,0x8(%rbx)
  402745:	48 b8 61 62 6c 65 20 	movabs $0x206f7420656c6261,%rax
  40274c:	74 6f 20 
  40274f:	48 89 43 10          	mov    %rax,0x10(%rbx)
  402753:	48 b8 72 65 61 64 20 	movabs $0x6165682064616572,%rax
  40275a:	68 65 61 
  40275d:	48 89 43 18          	mov    %rax,0x18(%rbx)
  402761:	48 b8 64 65 72 73 20 	movabs $0x6f72662073726564,%rax
  402768:	66 72 6f 
  40276b:	48 89 43 20          	mov    %rax,0x20(%rbx)
  40276f:	48 b8 6d 20 74 68 65 	movabs $0x657220656874206d,%rax
  402776:	20 72 65 
  402779:	48 89 43 28          	mov    %rax,0x28(%rbx)
  40277d:	48 b8 73 75 6c 74 20 	movabs $0x72657320746c7573,%rax
  402784:	73 65 72 
  402787:	48 89 43 30          	mov    %rax,0x30(%rbx)
  40278b:	c7 43 38 76 65 72 00 	movl   $0x726576,0x38(%rbx)
  402792:	89 ef                	mov    %ebp,%edi
  402794:	e8 c7 e4 ff ff       	call   400c60 <close@plt>
  402799:	b8 ff ff ff ff       	mov    $0xffffffff,%eax
  40279e:	e9 b3 01 00 00       	jmp    402956 <submitr+0x6b9>
  4027a3:	0f b6 94 24 40 20 00 	movzbl 0x2040(%rsp),%edx
  4027aa:	00 
  4027ab:	b8 0d 00 00 00       	mov    $0xd,%eax
  4027b0:	29 d0                	sub    %edx,%eax
  4027b2:	75 1b                	jne    4027cf <submitr+0x532>
  4027b4:	0f b6 94 24 41 20 00 	movzbl 0x2041(%rsp),%edx
  4027bb:	00 
  4027bc:	b8 0a 00 00 00       	mov    $0xa,%eax
  4027c1:	29 d0                	sub    %edx,%eax
  4027c3:	75 0a                	jne    4027cf <submitr+0x532>
  4027c5:	0f b6 84 24 42 20 00 	movzbl 0x2042(%rsp),%eax
  4027cc:	00 
  4027cd:	f7 d8                	neg    %eax
  4027cf:	85 c0                	test   %eax,%eax
  4027d1:	0f 85 37 ff ff ff    	jne    40270e <submitr+0x471>
  4027d7:	ba 00 20 00 00       	mov    $0x2000,%edx
  4027dc:	48 8d b4 24 40 20 00 	lea    0x2040(%rsp),%rsi
  4027e3:	00 
  4027e4:	48 8d 7c 24 30       	lea    0x30(%rsp),%rdi
  4027e9:	e8 f8 f8 ff ff       	call   4020e6 <rio_readlineb>
  4027ee:	48 85 c0             	test   %rax,%rax
  4027f1:	0f 8f 83 00 00 00    	jg     40287a <submitr+0x5dd>
  4027f7:	48 b8 45 72 72 6f 72 	movabs $0x43203a726f727245,%rax
  4027fe:	3a 20 43 
  402801:	48 89 03             	mov    %rax,(%rbx)
  402804:	48 b8 6c 69 65 6e 74 	movabs $0x6e7520746e65696c,%rax
  40280b:	20 75 6e 
  40280e:	48 89 43 08          	mov    %rax,0x8(%rbx)
  402812:	48 b8 61 62 6c 65 20 	movabs $0x206f7420656c6261,%rax
  402819:	74 6f 20 
  40281c:	48 89 43 10          	mov    %rax,0x10(%rbx)
  402820:	48 b8 72 65 61 64 20 	movabs $0x6174732064616572,%rax
  402827:	73 74 61 
  40282a:	48 89 43 18          	mov    %rax,0x18(%rbx)
  40282e:	48 b8 74 75 73 20 6d 	movabs $0x7373656d20737574,%rax
  402835:	65 73 73 
  402838:	48 89 43 20          	mov    %rax,0x20(%rbx)
  40283c:	48 b8 61 67 65 20 66 	movabs $0x6d6f726620656761,%rax
  402843:	72 6f 6d 
  402846:	48 89 43 28          	mov    %rax,0x28(%rbx)
  40284a:	48 b8 20 72 65 73 75 	movabs $0x20746c7573657220,%rax
  402851:	6c 74 20 
  402854:	48 89 43 30          	mov    %rax,0x30(%rbx)
  402858:	c7 43 38 73 65 72 76 	movl   $0x76726573,0x38(%rbx)
  40285f:	66 c7 43 3c 65 72    	movw   $0x7265,0x3c(%rbx)
  402865:	c6 43 3e 00          	movb   $0x0,0x3e(%rbx)
  402869:	89 ef                	mov    %ebp,%edi
  40286b:	e8 f0 e3 ff ff       	call   400c60 <close@plt>
  402870:	b8 ff ff ff ff       	mov    $0xffffffff,%eax
  402875:	e9 dc 00 00 00       	jmp    402956 <submitr+0x6b9>
  40287a:	44 8b 44 24 1c       	mov    0x1c(%rsp),%r8d
  40287f:	41 81 f8 c8 00 00 00 	cmp    $0xc8,%r8d
  402886:	74 37                	je     4028bf <submitr+0x622>
  402888:	4c 8d 8c 24 40 80 00 	lea    0x8040(%rsp),%r9
  40288f:	00 
  402890:	b9 98 33 40 00       	mov    $0x403398,%ecx
  402895:	48 c7 c2 ff ff ff ff 	mov    $0xffffffffffffffff,%rdx
  40289c:	be 01 00 00 00       	mov    $0x1,%esi
  4028a1:	48 89 df             	mov    %rbx,%rdi
  4028a4:	b8 00 00 00 00       	mov    $0x0,%eax
  4028a9:	e8 e2 e4 ff ff       	call   400d90 <__sprintf_chk@plt>
  4028ae:	89 ef                	mov    %ebp,%edi
  4028b0:	e8 ab e3 ff ff       	call   400c60 <close@plt>
  4028b5:	b8 ff ff ff ff       	mov    $0xffffffff,%eax
  4028ba:	e9 97 00 00 00       	jmp    402956 <submitr+0x6b9>
  4028bf:	48 8d b4 24 40 20 00 	lea    0x2040(%rsp),%rsi
  4028c6:	00 
  4028c7:	48 89 df             	mov    %rbx,%rdi
  4028ca:	e8 21 e3 ff ff       	call   400bf0 <strcpy@plt>
  4028cf:	89 ef                	mov    %ebp,%edi
  4028d1:	e8 8a e3 ff ff       	call   400c60 <close@plt>
  4028d6:	0f b6 03             	movzbl (%rbx),%eax
  4028d9:	ba 4f 00 00 00       	mov    $0x4f,%edx
  4028de:	29 c2                	sub    %eax,%edx
  4028e0:	75 22                	jne    402904 <submitr+0x667>
  4028e2:	0f b6 4b 01          	movzbl 0x1(%rbx),%ecx
  4028e6:	b8 4b 00 00 00       	mov    $0x4b,%eax
  4028eb:	29 c8                	sub    %ecx,%eax
  4028ed:	75 17                	jne    402906 <submitr+0x669>
  4028ef:	0f b6 4b 02          	movzbl 0x2(%rbx),%ecx
  4028f3:	b8 0a 00 00 00       	mov    $0xa,%eax
  4028f8:	29 c8                	sub    %ecx,%eax
  4028fa:	75 0a                	jne    402906 <submitr+0x669>
  4028fc:	0f b6 43 03          	movzbl 0x3(%rbx),%eax
  402900:	f7 d8                	neg    %eax
  402902:	eb 02                	jmp    402906 <submitr+0x669>
  402904:	89 d0                	mov    %edx,%eax
  402906:	85 c0                	test   %eax,%eax
  402908:	74 40                	je     40294a <submitr+0x6ad>
  40290a:	bf e0 33 40 00       	mov    $0x4033e0,%edi
  40290f:	b9 05 00 00 00       	mov    $0x5,%ecx
  402914:	48 89 de             	mov    %rbx,%rsi
  402917:	f3 a6                	repz cmpsb %es:(%rdi),%ds:(%rsi)
  402919:	0f 97 c0             	seta   %al
  40291c:	0f 92 c1             	setb   %cl
  40291f:	29 c8                	sub    %ecx,%eax
  402921:	0f be c0             	movsbl %al,%eax
  402924:	85 c0                	test   %eax,%eax
  402926:	74 2e                	je     402956 <submitr+0x6b9>
  402928:	85 d2                	test   %edx,%edx
  40292a:	75 13                	jne    40293f <submitr+0x6a2>
  40292c:	0f b6 43 01          	movzbl 0x1(%rbx),%eax
  402930:	ba 4b 00 00 00       	mov    $0x4b,%edx
  402935:	29 c2                	sub    %eax,%edx
  402937:	75 06                	jne    40293f <submitr+0x6a2>
  402939:	0f b6 53 02          	movzbl 0x2(%rbx),%edx
  40293d:	f7 da                	neg    %edx
  40293f:	85 d2                	test   %edx,%edx
  402941:	75 0e                	jne    402951 <submitr+0x6b4>
  402943:	b8 00 00 00 00       	mov    $0x0,%eax
  402948:	eb 0c                	jmp    402956 <submitr+0x6b9>
  40294a:	b8 00 00 00 00       	mov    $0x0,%eax
  40294f:	eb 05                	jmp    402956 <submitr+0x6b9>
  402951:	b8 ff ff ff ff       	mov    $0xffffffff,%eax
  402956:	48 8b 9c 24 48 a0 00 	mov    0xa048(%rsp),%rbx
  40295d:	00 
  40295e:	64 48 33 1c 25 28 00 	xor    %fs:0x28,%rbx
  402965:	00 00 
  402967:	74 05                	je     40296e <submitr+0x6d1>
  402969:	e8 b2 e2 ff ff       	call   400c20 <__stack_chk_fail@plt>
  40296e:	48 81 c4 58 a0 00 00 	add    $0xa058,%rsp
  402975:	5b                   	pop    %rbx
  402976:	5d                   	pop    %rbp
  402977:	41 5c                	pop    %r12
  402979:	41 5d                	pop    %r13
  40297b:	41 5e                	pop    %r14
  40297d:	41 5f                	pop    %r15
  40297f:	c3                   	ret

0000000000402980 <init_timeout>:
  402980:	85 ff                	test   %edi,%edi
  402982:	74 23                	je     4029a7 <init_timeout+0x27>
  402984:	53                   	push   %rbx
  402985:	89 fb                	mov    %edi,%ebx
  402987:	85 ff                	test   %edi,%edi
  402989:	79 05                	jns    402990 <init_timeout+0x10>
  40298b:	bb 00 00 00 00       	mov    $0x0,%ebx
  402990:	be d1 1f 40 00       	mov    $0x401fd1,%esi
  402995:	bf 0e 00 00 00       	mov    $0xe,%edi
  40299a:	e8 01 e3 ff ff       	call   400ca0 <signal@plt>
  40299f:	89 df                	mov    %ebx,%edi
  4029a1:	e8 aa e2 ff ff       	call   400c50 <alarm@plt>
  4029a6:	5b                   	pop    %rbx
  4029a7:	f3 c3                	repz ret

00000000004029a9 <init_driver>:
  4029a9:	55                   	push   %rbp
  4029aa:	53                   	push   %rbx
  4029ab:	48 83 ec 28          	sub    $0x28,%rsp
  4029af:	48 89 fd             	mov    %rdi,%rbp
  4029b2:	64 48 8b 04 25 28 00 	mov    %fs:0x28,%rax
  4029b9:	00 00 
  4029bb:	48 89 44 24 18       	mov    %rax,0x18(%rsp)
  4029c0:	31 c0                	xor    %eax,%eax
  4029c2:	be 01 00 00 00       	mov    $0x1,%esi
  4029c7:	bf 0d 00 00 00       	mov    $0xd,%edi
  4029cc:	e8 cf e2 ff ff       	call   400ca0 <signal@plt>
  4029d1:	be 01 00 00 00       	mov    $0x1,%esi
  4029d6:	bf 1d 00 00 00       	mov    $0x1d,%edi
  4029db:	e8 c0 e2 ff ff       	call   400ca0 <signal@plt>
  4029e0:	be 01 00 00 00       	mov    $0x1,%esi
  4029e5:	bf 1d 00 00 00       	mov    $0x1d,%edi
  4029ea:	e8 b1 e2 ff ff       	call   400ca0 <signal@plt>
  4029ef:	ba 00 00 00 00       	mov    $0x0,%edx
  4029f4:	be 01 00 00 00       	mov    $0x1,%esi
  4029f9:	bf 02 00 00 00       	mov    $0x2,%edi
  4029fe:	e8 9d e3 ff ff       	call   400da0 <socket@plt>
  402a03:	85 c0                	test   %eax,%eax
  402a05:	79 4f                	jns    402a56 <init_driver+0xad>
  402a07:	48 b8 45 72 72 6f 72 	movabs $0x43203a726f727245,%rax
  402a0e:	3a 20 43 
  402a11:	48 89 45 00          	mov    %rax,0x0(%rbp)
  402a15:	48 b8 6c 69 65 6e 74 	movabs $0x6e7520746e65696c,%rax
  402a1c:	20 75 6e 
  402a1f:	48 89 45 08          	mov    %rax,0x8(%rbp)
  402a23:	48 b8 61 62 6c 65 20 	movabs $0x206f7420656c6261,%rax
  402a2a:	74 6f 20 
  402a2d:	48 89 45 10          	mov    %rax,0x10(%rbp)
  402a31:	48 b8 63 72 65 61 74 	movabs $0x7320657461657263,%rax
  402a38:	65 20 73 
  402a3b:	48 89 45 18          	mov    %rax,0x18(%rbp)
  402a3f:	c7 45 20 6f 63 6b 65 	movl   $0x656b636f,0x20(%rbp)
  402a46:	66 c7 45 24 74 00    	movw   $0x74,0x24(%rbp)
  402a4c:	b8 ff ff ff ff       	mov    $0xffffffff,%eax
  402a51:	e9 9b 00 00 00       	jmp    402af1 <init_driver+0x148>
  402a56:	89 c3                	mov    %eax,%ebx
  402a58:	66 c7 04 24 02 00    	movw   $0x2,(%rsp)
  402a5e:	bf 27 2f 40 00       	mov    $0x402f27,%edi
  402a63:	b8 00 00 00 00       	mov    $0x0,%eax
  402a68:	e8 23 e2 ff ff       	call   400c90 <inet_addr@plt>
  402a6d:	89 44 24 04          	mov    %eax,0x4(%rsp)
  402a71:	66 c7 44 24 02 3c 9a 	movw   $0x9a3c,0x2(%rsp)
  402a78:	ba 10 00 00 00       	mov    $0x10,%edx
  402a7d:	48 89 e6             	mov    %rsp,%rsi
  402a80:	89 df                	mov    %ebx,%edi
  402a82:	e8 e9 e2 ff ff       	call   400d70 <connect@plt>
  402a87:	85 c0                	test   %eax,%eax
  402a89:	79 50                	jns    402adb <init_driver+0x132>
  402a8b:	48 b8 45 72 72 6f 72 	movabs $0x55203a726f727245,%rax
  402a92:	3a 20 55 
  402a95:	48 89 45 00          	mov    %rax,0x0(%rbp)
  402a99:	48 b8 6e 61 62 6c 65 	movabs $0x6f7420656c62616e,%rax
  402aa0:	20 74 6f 
  402aa3:	48 89 45 08          	mov    %rax,0x8(%rbp)
  402aa7:	48 b8 20 63 6f 6e 6e 	movabs $0x7463656e6e6f6320,%rax
  402aae:	65 63 74 
  402ab1:	48 89 45 10          	mov    %rax,0x10(%rbp)
  402ab5:	48 b8 20 74 6f 20 73 	movabs $0x76726573206f7420,%rax
  402abc:	65 72 76 
  402abf:	48 89 45 18          	mov    %rax,0x18(%rbp)
  402ac3:	66 c7 45 20 65 72    	movw   $0x7265,0x20(%rbp)
  402ac9:	c6 45 22 00          	movb   $0x0,0x22(%rbp)
  402acd:	89 df                	mov    %ebx,%edi
  402acf:	e8 8c e1 ff ff       	call   400c60 <close@plt>
  402ad4:	b8 ff ff ff ff       	mov    $0xffffffff,%eax
  402ad9:	eb 16                	jmp    402af1 <init_driver+0x148>
  402adb:	89 df                	mov    %ebx,%edi
  402add:	e8 7e e1 ff ff       	call   400c60 <close@plt>
  402ae2:	66 c7 45 00 4f 4b    	movw   $0x4b4f,0x0(%rbp)
  402ae8:	c6 45 02 00          	movb   $0x0,0x2(%rbp)
  402aec:	b8 00 00 00 00       	mov    $0x0,%eax
  402af1:	48 8b 4c 24 18       	mov    0x18(%rsp),%rcx
  402af6:	64 48 33 0c 25 28 00 	xor    %fs:0x28,%rcx
  402afd:	00 00 
  402aff:	74 05                	je     402b06 <init_driver+0x15d>
  402b01:	e8 1a e1 ff ff       	call   400c20 <__stack_chk_fail@plt>
  402b06:	48 83 c4 28          	add    $0x28,%rsp
  402b0a:	5b                   	pop    %rbx
  402b0b:	5d                   	pop    %rbp
  402b0c:	c3                   	ret

0000000000402b0d <driver_post>:
  402b0d:	53                   	push   %rbx
  402b0e:	4c 89 cb             	mov    %r9,%rbx
  402b11:	45 85 c0             	test   %r8d,%r8d
  402b14:	74 27                	je     402b3d <driver_post+0x30>
  402b16:	48 89 ca             	mov    %rcx,%rdx
  402b19:	be e5 33 40 00       	mov    $0x4033e5,%esi
  402b1e:	bf 01 00 00 00       	mov    $0x1,%edi
  402b23:	b8 00 00 00 00       	mov    $0x0,%eax
  402b28:	e8 f3 e1 ff ff       	call   400d20 <__printf_chk@plt>
  402b2d:	66 c7 03 4f 4b       	movw   $0x4b4f,(%rbx)
  402b32:	c6 43 02 00          	movb   $0x0,0x2(%rbx)
  402b36:	b8 00 00 00 00       	mov    $0x0,%eax
  402b3b:	eb 3f                	jmp    402b7c <driver_post+0x6f>
  402b3d:	48 85 ff             	test   %rdi,%rdi
  402b40:	74 2c                	je     402b6e <driver_post+0x61>
  402b42:	80 3f 00             	cmpb   $0x0,(%rdi)
  402b45:	74 27                	je     402b6e <driver_post+0x61>
  402b47:	48 83 ec 08          	sub    $0x8,%rsp
  402b4b:	41 51                	push   %r9
  402b4d:	49 89 c9             	mov    %rcx,%r9
  402b50:	49 89 d0             	mov    %rdx,%r8
  402b53:	48 89 f9             	mov    %rdi,%rcx
  402b56:	48 89 f2             	mov    %rsi,%rdx
  402b59:	be 9a 3c 00 00       	mov    $0x3c9a,%esi
  402b5e:	bf 27 2f 40 00       	mov    $0x402f27,%edi
  402b63:	e8 35 f7 ff ff       	call   40229d <submitr>
  402b68:	48 83 c4 10          	add    $0x10,%rsp
  402b6c:	eb 0e                	jmp    402b7c <driver_post+0x6f>
  402b6e:	66 c7 03 4f 4b       	movw   $0x4b4f,(%rbx)
  402b73:	c6 43 02 00          	movb   $0x0,0x2(%rbx)
  402b77:	b8 00 00 00 00       	mov    $0x0,%eax
  402b7c:	5b                   	pop    %rbx
  402b7d:	c3                   	ret

0000000000402b7e <check>:
  402b7e:	89 f8                	mov    %edi,%eax
  402b80:	c1 e8 1c             	shr    $0x1c,%eax
  402b83:	85 c0                	test   %eax,%eax
  402b85:	74 1d                	je     402ba4 <check+0x26>
  402b87:	b9 00 00 00 00       	mov    $0x0,%ecx
  402b8c:	eb 0b                	jmp    402b99 <check+0x1b>
  402b8e:	89 f8                	mov    %edi,%eax
  402b90:	d3 e8                	shr    %cl,%eax
  402b92:	3c 0a                	cmp    $0xa,%al
  402b94:	74 14                	je     402baa <check+0x2c>
  402b96:	83 c1 08             	add    $0x8,%ecx
  402b99:	83 f9 1f             	cmp    $0x1f,%ecx
  402b9c:	7e f0                	jle    402b8e <check+0x10>
  402b9e:	b8 01 00 00 00       	mov    $0x1,%eax
  402ba3:	c3                   	ret
  402ba4:	b8 00 00 00 00       	mov    $0x0,%eax
  402ba9:	c3                   	ret
  402baa:	b8 00 00 00 00       	mov    $0x0,%eax
  402baf:	c3                   	ret

0000000000402bb0 <gencookie>:
  402bb0:	53                   	push   %rbx
  402bb1:	83 c7 01             	add    $0x1,%edi
  402bb4:	e8 17 e0 ff ff       	call   400bd0 <srandom@plt>
  402bb9:	e8 22 e1 ff ff       	call   400ce0 <random@plt>
  402bbe:	89 c3                	mov    %eax,%ebx
  402bc0:	89 c7                	mov    %eax,%edi
  402bc2:	e8 b7 ff ff ff       	call   402b7e <check>
  402bc7:	85 c0                	test   %eax,%eax
  402bc9:	74 ee                	je     402bb9 <gencookie+0x9>
  402bcb:	89 d8                	mov    %ebx,%eax
  402bcd:	5b                   	pop    %rbx
  402bce:	c3                   	ret
  402bcf:	90                   	nop

0000000000402bd0 <__libc_csu_init>:
  402bd0:	41 57                	push   %r15
  402bd2:	41 56                	push   %r14
  402bd4:	41 89 ff             	mov    %edi,%r15d
  402bd7:	41 55                	push   %r13
  402bd9:	41 54                	push   %r12
  402bdb:	4c 8d 25 2e 12 20 00 	lea    0x20122e(%rip),%r12        # 603e10 <__frame_dummy_init_array_entry>
  402be2:	55                   	push   %rbp
  402be3:	48 8d 2d 2e 12 20 00 	lea    0x20122e(%rip),%rbp        # 603e18 <__do_global_dtors_aux_fini_array_entry>
  402bea:	53                   	push   %rbx
  402beb:	49 89 f6             	mov    %rsi,%r14
  402bee:	49 89 d5             	mov    %rdx,%r13
  402bf1:	4c 29 e5             	sub    %r12,%rbp
  402bf4:	48 83 ec 08          	sub    $0x8,%rsp
  402bf8:	48 c1 fd 03          	sar    $0x3,%rbp
  402bfc:	e8 87 df ff ff       	call   400b88 <_init>
  402c01:	48 85 ed             	test   %rbp,%rbp
  402c04:	74 20                	je     402c26 <__libc_csu_init+0x56>
  402c06:	31 db                	xor    %ebx,%ebx
  402c08:	0f 1f 84 00 00 00 00 	nopl   0x0(%rax,%rax,1)
  402c0f:	00 
  402c10:	4c 89 ea             	mov    %r13,%rdx
  402c13:	4c 89 f6             	mov    %r14,%rsi
  402c16:	44 89 ff             	mov    %r15d,%edi
  402c19:	41 ff 14 dc          	call   *(%r12,%rbx,8)
  402c1d:	48 83 c3 01          	add    $0x1,%rbx
  402c21:	48 39 eb             	cmp    %rbp,%rbx
  402c24:	75 ea                	jne    402c10 <__libc_csu_init+0x40>
  402c26:	48 83 c4 08          	add    $0x8,%rsp
  402c2a:	5b                   	pop    %rbx
  402c2b:	5d                   	pop    %rbp
  402c2c:	41 5c                	pop    %r12
  402c2e:	41 5d                	pop    %r13
  402c30:	41 5e                	pop    %r14
  402c32:	41 5f                	pop    %r15
  402c34:	c3                   	ret
  402c35:	90                   	nop
  402c36:	66 2e 0f 1f 84 00 00 	cs nopw 0x0(%rax,%rax,1)
  402c3d:	00 00 00 

0000000000402c40 <__libc_csu_fini>:
  402c40:	f3 c3                	repz ret

Disassembly of section .fini:

0000000000402c44 <_fini>:
  402c44:	48 83 ec 08          	sub    $0x8,%rsp
  402c48:	48 83 c4 08          	add    $0x8,%rsp
  402c4c:	c3                   	ret
